
;CodeVisionAVR C Compiler V3.14 Advanced
;(C) Copyright 1998-2014 Pavel Haiduc, HP InfoTech s.r.l.
;http://www.hpinfotech.com

;Build configuration    : Debug
;Chip type              : ATmega32
;Program type           : Application
;Clock frequency        : 8.000000 MHz
;Memory model           : Small
;Optimize for           : Size
;(s)printf features     : float, width, precision
;(s)scanf features      : int, width
;External RAM size      : 0
;Data Stack size        : 512 byte(s)
;Heap size              : 0 byte(s)
;Promote 'char' to 'int': Yes
;'char' is unsigned     : Yes
;8 bit enums            : Yes
;Global 'const' stored in FLASH: Yes
;Enhanced function parameter passing: Yes
;Enhanced core instructions: On
;Automatic register allocation for global variables: On
;Smart register allocation: On

	#define _MODEL_SMALL_

	#pragma AVRPART ADMIN PART_NAME ATmega32
	#pragma AVRPART MEMORY PROG_FLASH 32768
	#pragma AVRPART MEMORY EEPROM 1024
	#pragma AVRPART MEMORY INT_SRAM SIZE 2048
	#pragma AVRPART MEMORY INT_SRAM START_ADDR 0x60

	#define CALL_SUPPORTED 1

	.LISTMAC
	.EQU UDRE=0x5
	.EQU RXC=0x7
	.EQU USR=0xB
	.EQU UDR=0xC
	.EQU SPSR=0xE
	.EQU SPDR=0xF
	.EQU EERE=0x0
	.EQU EEWE=0x1
	.EQU EEMWE=0x2
	.EQU EECR=0x1C
	.EQU EEDR=0x1D
	.EQU EEARL=0x1E
	.EQU EEARH=0x1F
	.EQU WDTCR=0x21
	.EQU MCUCR=0x35
	.EQU GICR=0x3B
	.EQU SPL=0x3D
	.EQU SPH=0x3E
	.EQU SREG=0x3F

	.DEF R0X0=R0
	.DEF R0X1=R1
	.DEF R0X2=R2
	.DEF R0X3=R3
	.DEF R0X4=R4
	.DEF R0X5=R5
	.DEF R0X6=R6
	.DEF R0X7=R7
	.DEF R0X8=R8
	.DEF R0X9=R9
	.DEF R0XA=R10
	.DEF R0XB=R11
	.DEF R0XC=R12
	.DEF R0XD=R13
	.DEF R0XE=R14
	.DEF R0XF=R15
	.DEF R0X10=R16
	.DEF R0X11=R17
	.DEF R0X12=R18
	.DEF R0X13=R19
	.DEF R0X14=R20
	.DEF R0X15=R21
	.DEF R0X16=R22
	.DEF R0X17=R23
	.DEF R0X18=R24
	.DEF R0X19=R25
	.DEF R0X1A=R26
	.DEF R0X1B=R27
	.DEF R0X1C=R28
	.DEF R0X1D=R29
	.DEF R0X1E=R30
	.DEF R0X1F=R31

	.EQU __SRAM_START=0x0060
	.EQU __SRAM_END=0x085F
	.EQU __DSTACK_SIZE=0x0200
	.EQU __HEAP_SIZE=0x0000
	.EQU __CLEAR_SRAM_SIZE=__SRAM_END-__SRAM_START+1

	.MACRO __CPD1N
	CPI  R30,LOW(@0)
	LDI  R26,HIGH(@0)
	CPC  R31,R26
	LDI  R26,BYTE3(@0)
	CPC  R22,R26
	LDI  R26,BYTE4(@0)
	CPC  R23,R26
	.ENDM

	.MACRO __CPD2N
	CPI  R26,LOW(@0)
	LDI  R30,HIGH(@0)
	CPC  R27,R30
	LDI  R30,BYTE3(@0)
	CPC  R24,R30
	LDI  R30,BYTE4(@0)
	CPC  R25,R30
	.ENDM

	.MACRO __CPWRR
	CP   R@0,R@2
	CPC  R@1,R@3
	.ENDM

	.MACRO __CPWRN
	CPI  R@0,LOW(@2)
	LDI  R30,HIGH(@2)
	CPC  R@1,R30
	.ENDM

	.MACRO __ADDB1MN
	SUBI R30,LOW(-@0-(@1))
	.ENDM

	.MACRO __ADDB2MN
	SUBI R26,LOW(-@0-(@1))
	.ENDM

	.MACRO __ADDW1MN
	SUBI R30,LOW(-@0-(@1))
	SBCI R31,HIGH(-@0-(@1))
	.ENDM

	.MACRO __ADDW2MN
	SUBI R26,LOW(-@0-(@1))
	SBCI R27,HIGH(-@0-(@1))
	.ENDM

	.MACRO __ADDW1FN
	SUBI R30,LOW(-2*@0-(@1))
	SBCI R31,HIGH(-2*@0-(@1))
	.ENDM

	.MACRO __ADDD1FN
	SUBI R30,LOW(-2*@0-(@1))
	SBCI R31,HIGH(-2*@0-(@1))
	SBCI R22,BYTE3(-2*@0-(@1))
	.ENDM

	.MACRO __ADDD1N
	SUBI R30,LOW(-@0)
	SBCI R31,HIGH(-@0)
	SBCI R22,BYTE3(-@0)
	SBCI R23,BYTE4(-@0)
	.ENDM

	.MACRO __ADDD2N
	SUBI R26,LOW(-@0)
	SBCI R27,HIGH(-@0)
	SBCI R24,BYTE3(-@0)
	SBCI R25,BYTE4(-@0)
	.ENDM

	.MACRO __SUBD1N
	SUBI R30,LOW(@0)
	SBCI R31,HIGH(@0)
	SBCI R22,BYTE3(@0)
	SBCI R23,BYTE4(@0)
	.ENDM

	.MACRO __SUBD2N
	SUBI R26,LOW(@0)
	SBCI R27,HIGH(@0)
	SBCI R24,BYTE3(@0)
	SBCI R25,BYTE4(@0)
	.ENDM

	.MACRO __ANDBMNN
	LDS  R30,@0+(@1)
	ANDI R30,LOW(@2)
	STS  @0+(@1),R30
	.ENDM

	.MACRO __ANDWMNN
	LDS  R30,@0+(@1)
	ANDI R30,LOW(@2)
	STS  @0+(@1),R30
	LDS  R30,@0+(@1)+1
	ANDI R30,HIGH(@2)
	STS  @0+(@1)+1,R30
	.ENDM

	.MACRO __ANDD1N
	ANDI R30,LOW(@0)
	ANDI R31,HIGH(@0)
	ANDI R22,BYTE3(@0)
	ANDI R23,BYTE4(@0)
	.ENDM

	.MACRO __ANDD2N
	ANDI R26,LOW(@0)
	ANDI R27,HIGH(@0)
	ANDI R24,BYTE3(@0)
	ANDI R25,BYTE4(@0)
	.ENDM

	.MACRO __ORBMNN
	LDS  R30,@0+(@1)
	ORI  R30,LOW(@2)
	STS  @0+(@1),R30
	.ENDM

	.MACRO __ORWMNN
	LDS  R30,@0+(@1)
	ORI  R30,LOW(@2)
	STS  @0+(@1),R30
	LDS  R30,@0+(@1)+1
	ORI  R30,HIGH(@2)
	STS  @0+(@1)+1,R30
	.ENDM

	.MACRO __ORD1N
	ORI  R30,LOW(@0)
	ORI  R31,HIGH(@0)
	ORI  R22,BYTE3(@0)
	ORI  R23,BYTE4(@0)
	.ENDM

	.MACRO __ORD2N
	ORI  R26,LOW(@0)
	ORI  R27,HIGH(@0)
	ORI  R24,BYTE3(@0)
	ORI  R25,BYTE4(@0)
	.ENDM

	.MACRO __DELAY_USB
	LDI  R24,LOW(@0)
__DELAY_USB_LOOP:
	DEC  R24
	BRNE __DELAY_USB_LOOP
	.ENDM

	.MACRO __DELAY_USW
	LDI  R24,LOW(@0)
	LDI  R25,HIGH(@0)
__DELAY_USW_LOOP:
	SBIW R24,1
	BRNE __DELAY_USW_LOOP
	.ENDM

	.MACRO __GETD1S
	LDD  R30,Y+@0
	LDD  R31,Y+@0+1
	LDD  R22,Y+@0+2
	LDD  R23,Y+@0+3
	.ENDM

	.MACRO __GETD2S
	LDD  R26,Y+@0
	LDD  R27,Y+@0+1
	LDD  R24,Y+@0+2
	LDD  R25,Y+@0+3
	.ENDM

	.MACRO __PUTD1S
	STD  Y+@0,R30
	STD  Y+@0+1,R31
	STD  Y+@0+2,R22
	STD  Y+@0+3,R23
	.ENDM

	.MACRO __PUTD2S
	STD  Y+@0,R26
	STD  Y+@0+1,R27
	STD  Y+@0+2,R24
	STD  Y+@0+3,R25
	.ENDM

	.MACRO __PUTDZ2
	STD  Z+@0,R26
	STD  Z+@0+1,R27
	STD  Z+@0+2,R24
	STD  Z+@0+3,R25
	.ENDM

	.MACRO __CLRD1S
	STD  Y+@0,R30
	STD  Y+@0+1,R30
	STD  Y+@0+2,R30
	STD  Y+@0+3,R30
	.ENDM

	.MACRO __POINTB1MN
	LDI  R30,LOW(@0+(@1))
	.ENDM

	.MACRO __POINTW1MN
	LDI  R30,LOW(@0+(@1))
	LDI  R31,HIGH(@0+(@1))
	.ENDM

	.MACRO __POINTD1M
	LDI  R30,LOW(@0)
	LDI  R31,HIGH(@0)
	LDI  R22,BYTE3(@0)
	LDI  R23,BYTE4(@0)
	.ENDM

	.MACRO __POINTW1FN
	LDI  R30,LOW(2*@0+(@1))
	LDI  R31,HIGH(2*@0+(@1))
	.ENDM

	.MACRO __POINTD1FN
	LDI  R30,LOW(2*@0+(@1))
	LDI  R31,HIGH(2*@0+(@1))
	LDI  R22,BYTE3(2*@0+(@1))
	LDI  R23,BYTE4(2*@0+(@1))
	.ENDM

	.MACRO __POINTB2MN
	LDI  R26,LOW(@0+(@1))
	.ENDM

	.MACRO __POINTW2MN
	LDI  R26,LOW(@0+(@1))
	LDI  R27,HIGH(@0+(@1))
	.ENDM

	.MACRO __POINTW2FN
	LDI  R26,LOW(2*@0+(@1))
	LDI  R27,HIGH(2*@0+(@1))
	.ENDM

	.MACRO __POINTD2FN
	LDI  R26,LOW(2*@0+(@1))
	LDI  R27,HIGH(2*@0+(@1))
	LDI  R24,BYTE3(2*@0+(@1))
	LDI  R25,BYTE4(2*@0+(@1))
	.ENDM

	.MACRO __POINTBRM
	LDI  R@0,LOW(@1)
	.ENDM

	.MACRO __POINTWRM
	LDI  R@0,LOW(@2)
	LDI  R@1,HIGH(@2)
	.ENDM

	.MACRO __POINTBRMN
	LDI  R@0,LOW(@1+(@2))
	.ENDM

	.MACRO __POINTWRMN
	LDI  R@0,LOW(@2+(@3))
	LDI  R@1,HIGH(@2+(@3))
	.ENDM

	.MACRO __POINTWRFN
	LDI  R@0,LOW(@2*2+(@3))
	LDI  R@1,HIGH(@2*2+(@3))
	.ENDM

	.MACRO __GETD1N
	LDI  R30,LOW(@0)
	LDI  R31,HIGH(@0)
	LDI  R22,BYTE3(@0)
	LDI  R23,BYTE4(@0)
	.ENDM

	.MACRO __GETD2N
	LDI  R26,LOW(@0)
	LDI  R27,HIGH(@0)
	LDI  R24,BYTE3(@0)
	LDI  R25,BYTE4(@0)
	.ENDM

	.MACRO __GETB1MN
	LDS  R30,@0+(@1)
	.ENDM

	.MACRO __GETB1HMN
	LDS  R31,@0+(@1)
	.ENDM

	.MACRO __GETW1MN
	LDS  R30,@0+(@1)
	LDS  R31,@0+(@1)+1
	.ENDM

	.MACRO __GETD1MN
	LDS  R30,@0+(@1)
	LDS  R31,@0+(@1)+1
	LDS  R22,@0+(@1)+2
	LDS  R23,@0+(@1)+3
	.ENDM

	.MACRO __GETBRMN
	LDS  R@0,@1+(@2)
	.ENDM

	.MACRO __GETWRMN
	LDS  R@0,@2+(@3)
	LDS  R@1,@2+(@3)+1
	.ENDM

	.MACRO __GETWRZ
	LDD  R@0,Z+@2
	LDD  R@1,Z+@2+1
	.ENDM

	.MACRO __GETD2Z
	LDD  R26,Z+@0
	LDD  R27,Z+@0+1
	LDD  R24,Z+@0+2
	LDD  R25,Z+@0+3
	.ENDM

	.MACRO __GETB2MN
	LDS  R26,@0+(@1)
	.ENDM

	.MACRO __GETW2MN
	LDS  R26,@0+(@1)
	LDS  R27,@0+(@1)+1
	.ENDM

	.MACRO __GETD2MN
	LDS  R26,@0+(@1)
	LDS  R27,@0+(@1)+1
	LDS  R24,@0+(@1)+2
	LDS  R25,@0+(@1)+3
	.ENDM

	.MACRO __PUTB1MN
	STS  @0+(@1),R30
	.ENDM

	.MACRO __PUTW1MN
	STS  @0+(@1),R30
	STS  @0+(@1)+1,R31
	.ENDM

	.MACRO __PUTD1MN
	STS  @0+(@1),R30
	STS  @0+(@1)+1,R31
	STS  @0+(@1)+2,R22
	STS  @0+(@1)+3,R23
	.ENDM

	.MACRO __PUTB1EN
	LDI  R26,LOW(@0+(@1))
	LDI  R27,HIGH(@0+(@1))
	CALL __EEPROMWRB
	.ENDM

	.MACRO __PUTW1EN
	LDI  R26,LOW(@0+(@1))
	LDI  R27,HIGH(@0+(@1))
	CALL __EEPROMWRW
	.ENDM

	.MACRO __PUTD1EN
	LDI  R26,LOW(@0+(@1))
	LDI  R27,HIGH(@0+(@1))
	CALL __EEPROMWRD
	.ENDM

	.MACRO __PUTBR0MN
	STS  @0+(@1),R0
	.ENDM

	.MACRO __PUTBMRN
	STS  @0+(@1),R@2
	.ENDM

	.MACRO __PUTWMRN
	STS  @0+(@1),R@2
	STS  @0+(@1)+1,R@3
	.ENDM

	.MACRO __PUTBZR
	STD  Z+@1,R@0
	.ENDM

	.MACRO __PUTWZR
	STD  Z+@2,R@0
	STD  Z+@2+1,R@1
	.ENDM

	.MACRO __GETW1R
	MOV  R30,R@0
	MOV  R31,R@1
	.ENDM

	.MACRO __GETW2R
	MOV  R26,R@0
	MOV  R27,R@1
	.ENDM

	.MACRO __GETWRN
	LDI  R@0,LOW(@2)
	LDI  R@1,HIGH(@2)
	.ENDM

	.MACRO __PUTW1R
	MOV  R@0,R30
	MOV  R@1,R31
	.ENDM

	.MACRO __PUTW2R
	MOV  R@0,R26
	MOV  R@1,R27
	.ENDM

	.MACRO __ADDWRN
	SUBI R@0,LOW(-@2)
	SBCI R@1,HIGH(-@2)
	.ENDM

	.MACRO __ADDWRR
	ADD  R@0,R@2
	ADC  R@1,R@3
	.ENDM

	.MACRO __SUBWRN
	SUBI R@0,LOW(@2)
	SBCI R@1,HIGH(@2)
	.ENDM

	.MACRO __SUBWRR
	SUB  R@0,R@2
	SBC  R@1,R@3
	.ENDM

	.MACRO __ANDWRN
	ANDI R@0,LOW(@2)
	ANDI R@1,HIGH(@2)
	.ENDM

	.MACRO __ANDWRR
	AND  R@0,R@2
	AND  R@1,R@3
	.ENDM

	.MACRO __ORWRN
	ORI  R@0,LOW(@2)
	ORI  R@1,HIGH(@2)
	.ENDM

	.MACRO __ORWRR
	OR   R@0,R@2
	OR   R@1,R@3
	.ENDM

	.MACRO __EORWRR
	EOR  R@0,R@2
	EOR  R@1,R@3
	.ENDM

	.MACRO __GETWRS
	LDD  R@0,Y+@2
	LDD  R@1,Y+@2+1
	.ENDM

	.MACRO __PUTBSR
	STD  Y+@1,R@0
	.ENDM

	.MACRO __PUTWSR
	STD  Y+@2,R@0
	STD  Y+@2+1,R@1
	.ENDM

	.MACRO __MOVEWRR
	MOV  R@0,R@2
	MOV  R@1,R@3
	.ENDM

	.MACRO __INWR
	IN   R@0,@2
	IN   R@1,@2+1
	.ENDM

	.MACRO __OUTWR
	OUT  @2+1,R@1
	OUT  @2,R@0
	.ENDM

	.MACRO __CALL1MN
	LDS  R30,@0+(@1)
	LDS  R31,@0+(@1)+1
	ICALL
	.ENDM

	.MACRO __CALL1FN
	LDI  R30,LOW(2*@0+(@1))
	LDI  R31,HIGH(2*@0+(@1))
	CALL __GETW1PF
	ICALL
	.ENDM

	.MACRO __CALL2EN
	PUSH R26
	PUSH R27
	LDI  R26,LOW(@0+(@1))
	LDI  R27,HIGH(@0+(@1))
	CALL __EEPROMRDW
	POP  R27
	POP  R26
	ICALL
	.ENDM

	.MACRO __CALL2EX
	SUBI R26,LOW(-@0)
	SBCI R27,HIGH(-@0)
	CALL __EEPROMRDD
	ICALL
	.ENDM

	.MACRO __GETW1STACK
	IN   R30,SPL
	IN   R31,SPH
	ADIW R30,@0+1
	LD   R0,Z+
	LD   R31,Z
	MOV  R30,R0
	.ENDM

	.MACRO __GETD1STACK
	IN   R30,SPL
	IN   R31,SPH
	ADIW R30,@0+1
	LD   R0,Z+
	LD   R1,Z+
	LD   R22,Z
	MOVW R30,R0
	.ENDM

	.MACRO __NBST
	BST  R@0,@1
	IN   R30,SREG
	LDI  R31,0x40
	EOR  R30,R31
	OUT  SREG,R30
	.ENDM


	.MACRO __PUTB1SN
	LDD  R26,Y+@0
	LDD  R27,Y+@0+1
	SUBI R26,LOW(-@1)
	SBCI R27,HIGH(-@1)
	ST   X,R30
	.ENDM

	.MACRO __PUTW1SN
	LDD  R26,Y+@0
	LDD  R27,Y+@0+1
	SUBI R26,LOW(-@1)
	SBCI R27,HIGH(-@1)
	ST   X+,R30
	ST   X,R31
	.ENDM

	.MACRO __PUTD1SN
	LDD  R26,Y+@0
	LDD  R27,Y+@0+1
	SUBI R26,LOW(-@1)
	SBCI R27,HIGH(-@1)
	CALL __PUTDP1
	.ENDM

	.MACRO __PUTB1SNS
	LDD  R26,Y+@0
	LDD  R27,Y+@0+1
	ADIW R26,@1
	ST   X,R30
	.ENDM

	.MACRO __PUTW1SNS
	LDD  R26,Y+@0
	LDD  R27,Y+@0+1
	ADIW R26,@1
	ST   X+,R30
	ST   X,R31
	.ENDM

	.MACRO __PUTD1SNS
	LDD  R26,Y+@0
	LDD  R27,Y+@0+1
	ADIW R26,@1
	CALL __PUTDP1
	.ENDM

	.MACRO __PUTB1PMN
	LDS  R26,@0
	LDS  R27,@0+1
	SUBI R26,LOW(-@1)
	SBCI R27,HIGH(-@1)
	ST   X,R30
	.ENDM

	.MACRO __PUTW1PMN
	LDS  R26,@0
	LDS  R27,@0+1
	SUBI R26,LOW(-@1)
	SBCI R27,HIGH(-@1)
	ST   X+,R30
	ST   X,R31
	.ENDM

	.MACRO __PUTD1PMN
	LDS  R26,@0
	LDS  R27,@0+1
	SUBI R26,LOW(-@1)
	SBCI R27,HIGH(-@1)
	CALL __PUTDP1
	.ENDM

	.MACRO __PUTB1PMNS
	LDS  R26,@0
	LDS  R27,@0+1
	ADIW R26,@1
	ST   X,R30
	.ENDM

	.MACRO __PUTW1PMNS
	LDS  R26,@0
	LDS  R27,@0+1
	ADIW R26,@1
	ST   X+,R30
	ST   X,R31
	.ENDM

	.MACRO __PUTD1PMNS
	LDS  R26,@0
	LDS  R27,@0+1
	ADIW R26,@1
	CALL __PUTDP1
	.ENDM

	.MACRO __PUTB1RN
	MOVW R26,R@0
	SUBI R26,LOW(-@1)
	SBCI R27,HIGH(-@1)
	ST   X,R30
	.ENDM

	.MACRO __PUTW1RN
	MOVW R26,R@0
	SUBI R26,LOW(-@1)
	SBCI R27,HIGH(-@1)
	ST   X+,R30
	ST   X,R31
	.ENDM

	.MACRO __PUTD1RN
	MOVW R26,R@0
	SUBI R26,LOW(-@1)
	SBCI R27,HIGH(-@1)
	CALL __PUTDP1
	.ENDM

	.MACRO __PUTB1RNS
	MOVW R26,R@0
	ADIW R26,@1
	ST   X,R30
	.ENDM

	.MACRO __PUTW1RNS
	MOVW R26,R@0
	ADIW R26,@1
	ST   X+,R30
	ST   X,R31
	.ENDM

	.MACRO __PUTD1RNS
	MOVW R26,R@0
	ADIW R26,@1
	CALL __PUTDP1
	.ENDM

	.MACRO __PUTB1RON
	MOV  R26,R@0
	MOV  R27,R@1
	SUBI R26,LOW(-@2)
	SBCI R27,HIGH(-@2)
	ST   X,R30
	.ENDM

	.MACRO __PUTW1RON
	MOV  R26,R@0
	MOV  R27,R@1
	SUBI R26,LOW(-@2)
	SBCI R27,HIGH(-@2)
	ST   X+,R30
	ST   X,R31
	.ENDM

	.MACRO __PUTD1RON
	MOV  R26,R@0
	MOV  R27,R@1
	SUBI R26,LOW(-@2)
	SBCI R27,HIGH(-@2)
	CALL __PUTDP1
	.ENDM

	.MACRO __PUTB1RONS
	MOV  R26,R@0
	MOV  R27,R@1
	ADIW R26,@2
	ST   X,R30
	.ENDM

	.MACRO __PUTW1RONS
	MOV  R26,R@0
	MOV  R27,R@1
	ADIW R26,@2
	ST   X+,R30
	ST   X,R31
	.ENDM

	.MACRO __PUTD1RONS
	MOV  R26,R@0
	MOV  R27,R@1
	ADIW R26,@2
	CALL __PUTDP1
	.ENDM


	.MACRO __GETB1SX
	MOVW R30,R28
	SUBI R30,LOW(-@0)
	SBCI R31,HIGH(-@0)
	LD   R30,Z
	.ENDM

	.MACRO __GETB1HSX
	MOVW R30,R28
	SUBI R30,LOW(-@0)
	SBCI R31,HIGH(-@0)
	LD   R31,Z
	.ENDM

	.MACRO __GETW1SX
	MOVW R30,R28
	SUBI R30,LOW(-@0)
	SBCI R31,HIGH(-@0)
	LD   R0,Z+
	LD   R31,Z
	MOV  R30,R0
	.ENDM

	.MACRO __GETD1SX
	MOVW R30,R28
	SUBI R30,LOW(-@0)
	SBCI R31,HIGH(-@0)
	LD   R0,Z+
	LD   R1,Z+
	LD   R22,Z+
	LD   R23,Z
	MOVW R30,R0
	.ENDM

	.MACRO __GETB2SX
	MOVW R26,R28
	SUBI R26,LOW(-@0)
	SBCI R27,HIGH(-@0)
	LD   R26,X
	.ENDM

	.MACRO __GETW2SX
	MOVW R26,R28
	SUBI R26,LOW(-@0)
	SBCI R27,HIGH(-@0)
	LD   R0,X+
	LD   R27,X
	MOV  R26,R0
	.ENDM

	.MACRO __GETD2SX
	MOVW R26,R28
	SUBI R26,LOW(-@0)
	SBCI R27,HIGH(-@0)
	LD   R0,X+
	LD   R1,X+
	LD   R24,X+
	LD   R25,X
	MOVW R26,R0
	.ENDM

	.MACRO __GETBRSX
	MOVW R30,R28
	SUBI R30,LOW(-@1)
	SBCI R31,HIGH(-@1)
	LD   R@0,Z
	.ENDM

	.MACRO __GETWRSX
	MOVW R30,R28
	SUBI R30,LOW(-@2)
	SBCI R31,HIGH(-@2)
	LD   R@0,Z+
	LD   R@1,Z
	.ENDM

	.MACRO __GETBRSX2
	MOVW R26,R28
	SUBI R26,LOW(-@1)
	SBCI R27,HIGH(-@1)
	LD   R@0,X
	.ENDM

	.MACRO __GETWRSX2
	MOVW R26,R28
	SUBI R26,LOW(-@2)
	SBCI R27,HIGH(-@2)
	LD   R@0,X+
	LD   R@1,X
	.ENDM

	.MACRO __LSLW8SX
	MOVW R30,R28
	SUBI R30,LOW(-@0)
	SBCI R31,HIGH(-@0)
	LD   R31,Z
	CLR  R30
	.ENDM

	.MACRO __PUTB1SX
	MOVW R26,R28
	SUBI R26,LOW(-@0)
	SBCI R27,HIGH(-@0)
	ST   X,R30
	.ENDM

	.MACRO __PUTW1SX
	MOVW R26,R28
	SUBI R26,LOW(-@0)
	SBCI R27,HIGH(-@0)
	ST   X+,R30
	ST   X,R31
	.ENDM

	.MACRO __PUTD1SX
	MOVW R26,R28
	SUBI R26,LOW(-@0)
	SBCI R27,HIGH(-@0)
	ST   X+,R30
	ST   X+,R31
	ST   X+,R22
	ST   X,R23
	.ENDM

	.MACRO __CLRW1SX
	MOVW R26,R28
	SUBI R26,LOW(-@0)
	SBCI R27,HIGH(-@0)
	ST   X+,R30
	ST   X,R30
	.ENDM

	.MACRO __CLRD1SX
	MOVW R26,R28
	SUBI R26,LOW(-@0)
	SBCI R27,HIGH(-@0)
	ST   X+,R30
	ST   X+,R30
	ST   X+,R30
	ST   X,R30
	.ENDM

	.MACRO __PUTB2SX
	MOVW R30,R28
	SUBI R30,LOW(-@0)
	SBCI R31,HIGH(-@0)
	ST   Z,R26
	.ENDM

	.MACRO __PUTW2SX
	MOVW R30,R28
	SUBI R30,LOW(-@0)
	SBCI R31,HIGH(-@0)
	ST   Z+,R26
	ST   Z,R27
	.ENDM

	.MACRO __PUTD2SX
	MOVW R30,R28
	SUBI R30,LOW(-@0)
	SBCI R31,HIGH(-@0)
	ST   Z+,R26
	ST   Z+,R27
	ST   Z+,R24
	ST   Z,R25
	.ENDM

	.MACRO __PUTBSRX
	MOVW R30,R28
	SUBI R30,LOW(-@1)
	SBCI R31,HIGH(-@1)
	ST   Z,R@0
	.ENDM

	.MACRO __PUTWSRX
	MOVW R30,R28
	SUBI R30,LOW(-@2)
	SBCI R31,HIGH(-@2)
	ST   Z+,R@0
	ST   Z,R@1
	.ENDM

	.MACRO __PUTB1SNX
	MOVW R26,R28
	SUBI R26,LOW(-@0)
	SBCI R27,HIGH(-@0)
	LD   R0,X+
	LD   R27,X
	MOV  R26,R0
	SUBI R26,LOW(-@1)
	SBCI R27,HIGH(-@1)
	ST   X,R30
	.ENDM

	.MACRO __PUTW1SNX
	MOVW R26,R28
	SUBI R26,LOW(-@0)
	SBCI R27,HIGH(-@0)
	LD   R0,X+
	LD   R27,X
	MOV  R26,R0
	SUBI R26,LOW(-@1)
	SBCI R27,HIGH(-@1)
	ST   X+,R30
	ST   X,R31
	.ENDM

	.MACRO __PUTD1SNX
	MOVW R26,R28
	SUBI R26,LOW(-@0)
	SBCI R27,HIGH(-@0)
	LD   R0,X+
	LD   R27,X
	MOV  R26,R0
	SUBI R26,LOW(-@1)
	SBCI R27,HIGH(-@1)
	ST   X+,R30
	ST   X+,R31
	ST   X+,R22
	ST   X,R23
	.ENDM

	.MACRO __MULBRR
	MULS R@0,R@1
	MOVW R30,R0
	.ENDM

	.MACRO __MULBRRU
	MUL  R@0,R@1
	MOVW R30,R0
	.ENDM

	.MACRO __MULBRR0
	MULS R@0,R@1
	.ENDM

	.MACRO __MULBRRU0
	MUL  R@0,R@1
	.ENDM

	.MACRO __MULBNWRU
	LDI  R26,@2
	MUL  R26,R@0
	MOVW R30,R0
	MUL  R26,R@1
	ADD  R31,R0
	.ENDM

;NAME DEFINITIONS FOR GLOBAL VARIABLES ALLOCATED TO REGISTERS
	.DEF _i=R4
	.DEF _i_msb=R5
	.DEF _j=R7
	.DEF _k=R6
	.DEF _e=R9
	.DEF _z=R8
	.DEF _setPass=R11
	.DEF _flag=R10
	.DEF __lcd_x=R13
	.DEF __lcd_y=R12

	.CSEG
	.ORG 0x00

;START OF CODE MARKER
__START_OF_CODE:

;INTERRUPT VECTORS
	JMP  __RESET
	JMP  _ext_int0_isr
	JMP  0x00
	JMP  0x00
	JMP  0x00
	JMP  0x00
	JMP  0x00
	JMP  0x00
	JMP  0x00
	JMP  0x00
	JMP  0x00
	JMP  0x00
	JMP  0x00
	JMP  0x00
	JMP  0x00
	JMP  0x00
	JMP  0x00
	JMP  0x00
	JMP  0x00
	JMP  0x00
	JMP  0x00

;GLOBAL REGISTER VARIABLES INITIALIZATION
__REG_VARS:
	.DB  0xD2,0x0,0x0,0x0
	.DB  0x0,0x0,0x2

_0x0:
	.DB  0x57,0x65,0x6C,0x63,0x6F,0x6D,0x65,0x0
	.DB  0x53,0x65,0x74,0x50,0x61,0x73,0x73,0x77
	.DB  0x6F,0x72,0x64,0x3A,0x0,0x56,0x65,0x72
	.DB  0x69,0x66,0x79,0x20,0x50,0x61,0x73,0x73
	.DB  0x77,0x6F,0x72,0x64,0x0,0x45,0x6E,0x74
	.DB  0x65,0x72,0x20,0x50,0x61,0x73,0x73,0x77
	.DB  0x6F,0x72,0x64,0x3A,0x0,0x4C,0x6F,0x67
	.DB  0x69,0x6E,0x20,0x53,0x75,0x63,0x63,0x65
	.DB  0x65,0x64,0x65,0x64,0x21,0x0,0x4C,0x6F
	.DB  0x67,0x69,0x6E,0x20,0x46,0x61,0x69,0x6C
	.DB  0x65,0x64,0x21,0x0,0x53,0x79,0x73,0x74
	.DB  0x65,0x6D,0x4C,0x6F,0x63,0x6B,0x65,0x64
	.DB  0x21,0x0,0x25,0x32,0x64,0x0
_0x2000003:
	.DB  0x80,0xC0
_0x2020000:
	.DB  0x2D,0x4E,0x41,0x4E,0x0
_0x20A0060:
	.DB  0x1
_0x20A0000:
	.DB  0x2D,0x4E,0x41,0x4E,0x0,0x49,0x4E,0x46
	.DB  0x0

__GLOBAL_INI_TBL:
	.DW  0x07
	.DW  0x04
	.DW  __REG_VARS*2

	.DW  0x0E
	.DW  _0x3B
	.DW  _0x0*2+84

	.DW  0x02
	.DW  __base_y_G100
	.DW  _0x2000003*2

	.DW  0x01
	.DW  __seed_G105
	.DW  _0x20A0060*2

_0xFFFFFFFF:
	.DW  0

#define __GLOBAL_INI_TBL_PRESENT 1

__RESET:
	CLI
	CLR  R30
	OUT  EECR,R30

;INTERRUPT VECTORS ARE PLACED
;AT THE START OF FLASH
	LDI  R31,1
	OUT  GICR,R31
	OUT  GICR,R30
	OUT  MCUCR,R30

;CLEAR R2-R14
	LDI  R24,(14-2)+1
	LDI  R26,2
	CLR  R27
__CLEAR_REG:
	ST   X+,R30
	DEC  R24
	BRNE __CLEAR_REG

;CLEAR SRAM
	LDI  R24,LOW(__CLEAR_SRAM_SIZE)
	LDI  R25,HIGH(__CLEAR_SRAM_SIZE)
	LDI  R26,__SRAM_START
__CLEAR_SRAM:
	ST   X+,R30
	SBIW R24,1
	BRNE __CLEAR_SRAM

;GLOBAL VARIABLES INITIALIZATION
	LDI  R30,LOW(__GLOBAL_INI_TBL*2)
	LDI  R31,HIGH(__GLOBAL_INI_TBL*2)
__GLOBAL_INI_NEXT:
	LPM  R24,Z+
	LPM  R25,Z+
	SBIW R24,0
	BREQ __GLOBAL_INI_END
	LPM  R26,Z+
	LPM  R27,Z+
	LPM  R0,Z+
	LPM  R1,Z+
	MOVW R22,R30
	MOVW R30,R0
__GLOBAL_INI_LOOP:
	LPM  R0,Z+
	ST   X+,R0
	SBIW R24,1
	BRNE __GLOBAL_INI_LOOP
	MOVW R30,R22
	RJMP __GLOBAL_INI_NEXT
__GLOBAL_INI_END:

;HARDWARE STACK POINTER INITIALIZATION
	LDI  R30,LOW(__SRAM_END-__HEAP_SIZE)
	OUT  SPL,R30
	LDI  R30,HIGH(__SRAM_END-__HEAP_SIZE)
	OUT  SPH,R30

;DATA STACK POINTER INITIALIZATION
	LDI  R28,LOW(__SRAM_START+__DSTACK_SIZE)
	LDI  R29,HIGH(__SRAM_START+__DSTACK_SIZE)

	JMP  _main

	.ESEG
	.ORG 0

	.DSEG
	.ORG 0x260

	.CSEG
;#include <mega32.h>
	#ifndef __SLEEP_DEFINED__
	#define __SLEEP_DEFINED__
	.EQU __se_bit=0x80
	.EQU __sm_mask=0x70
	.EQU __sm_powerdown=0x20
	.EQU __sm_powersave=0x30
	.EQU __sm_standby=0x60
	.EQU __sm_ext_standby=0x70
	.EQU __sm_adc_noise_red=0x10
	.SET power_ctrl_reg=mcucr
	#endif
;#include <i2c.h>
;#include <alcd.h>
;#include <stdio.h>
;#include <delay.h>
;
;
;unsigned int i = 210;
;unsigned char str[2], j = 0, k = 0, e, z = 0, setPass, correctPass[4], code[4], flag = 2;
;
;
;
;void byteWrite(unsigned char deviceAddres, unsigned int addres, unsigned char data)
; 0000 000E {

	.CSEG
_byteWrite:
; .FSTART _byteWrite
; 0000 000F     unsigned char lowAddres, highAddres;
; 0000 0010     lowAddres = addres;
	ST   -Y,R26
	ST   -Y,R17
	ST   -Y,R16
;	deviceAddres -> Y+5
;	addres -> Y+3
;	data -> Y+2
;	lowAddres -> R17
;	highAddres -> R16
	LDD  R17,Y+3
; 0000 0011     highAddres = (addres >> 8);
	LDD  R16,Y+4
; 0000 0012     deviceAddres <<= 1;
	LDD  R30,Y+5
	LSL  R30
	STD  Y+5,R30
; 0000 0013     i2c_start();
	CALL _i2c_start
; 0000 0014     i2c_write(deviceAddres);
	LDD  R26,Y+5
	CALL SUBOPT_0x0
; 0000 0015     i2c_write(highAddres);
; 0000 0016     i2c_write(lowAddres);
; 0000 0017     i2c_write(data);
	LDD  R26,Y+2
	CALL _i2c_write
; 0000 0018     i2c_stop();
	CALL SUBOPT_0x1
; 0000 0019     delay_ms(10);
; 0000 001A }
	LDD  R17,Y+1
	LDD  R16,Y+0
	ADIW R28,6
	RET
; .FEND
;
;
;unsigned char randomRead(unsigned char deviceAddres, unsigned int addres)
; 0000 001E {
_randomRead:
; .FSTART _randomRead
; 0000 001F     unsigned char lowAddres, highAddres, read;
; 0000 0020     lowAddres = addres;
	ST   -Y,R27
	ST   -Y,R26
	CALL __SAVELOCR4
;	deviceAddres -> Y+6
;	addres -> Y+4
;	lowAddres -> R17
;	highAddres -> R16
;	read -> R19
	LDD  R17,Y+4
; 0000 0021     highAddres = (addres >> 8);
	LDD  R16,Y+5
; 0000 0022     deviceAddres <<= 1;
	LDD  R30,Y+6
	LSL  R30
	STD  Y+6,R30
; 0000 0023     i2c_start();
	CALL _i2c_start
; 0000 0024     i2c_write(deviceAddres);
	LDD  R26,Y+6
	CALL SUBOPT_0x0
; 0000 0025     i2c_write(highAddres);
; 0000 0026     i2c_write(lowAddres);
; 0000 0027     i2c_start();
	CALL _i2c_start
; 0000 0028     i2c_write(deviceAddres | 1);
	LDD  R30,Y+6
	ORI  R30,1
	MOV  R26,R30
	CALL _i2c_write
; 0000 0029     read = i2c_read(0);
	LDI  R26,LOW(0)
	CALL _i2c_read
	MOV  R19,R30
; 0000 002A     i2c_stop();
	CALL SUBOPT_0x1
; 0000 002B     delay_ms(10);
; 0000 002C     return read;
	MOV  R30,R19
	CALL __LOADLOCR4
	ADIW R28,7
	RET
; 0000 002D }
; .FEND
;
;
;interrupt [EXT_INT0] void ext_int0_isr(void)
; 0000 0031 {
_ext_int0_isr:
; .FSTART _ext_int0_isr
	ST   -Y,R0
	ST   -Y,R1
	ST   -Y,R15
	ST   -Y,R22
	ST   -Y,R23
	ST   -Y,R24
	ST   -Y,R25
	ST   -Y,R26
	ST   -Y,R27
	ST   -Y,R30
	ST   -Y,R31
	IN   R30,SREG
	ST   -Y,R30
; 0000 0032     if(setPass == 0)
	TST  R11
	BREQ PC+2
	RJMP _0x3
; 0000 0033     {
; 0000 0034         correctPass[j] = PINC & 0x0f;
	MOV  R26,R7
	LDI  R27,0
	SUBI R26,LOW(-_correctPass)
	SBCI R27,HIGH(-_correctPass)
	IN   R30,0x13
	ANDI R30,LOW(0xF)
	ST   X,R30
; 0000 0035         switch(correctPass[j])
	CALL SUBOPT_0x2
	LD   R30,Z
	LDI  R31,0
; 0000 0036         {
; 0000 0037             case 0:
	SBIW R30,0
	BRNE _0x7
; 0000 0038                 correctPass[j] = 7;
	CALL SUBOPT_0x2
	LDI  R26,LOW(7)
	STD  Z+0,R26
; 0000 0039                 lcd_putchar('7');
	LDI  R26,LOW(55)
	RJMP _0x40
; 0000 003A                 break;
; 0000 003B             case 1:
_0x7:
	CPI  R30,LOW(0x1)
	LDI  R26,HIGH(0x1)
	CPC  R31,R26
	BRNE _0x8
; 0000 003C                 correctPass[j] = 4;
	CALL SUBOPT_0x2
	LDI  R26,LOW(4)
	STD  Z+0,R26
; 0000 003D                 lcd_putchar('4');
	LDI  R26,LOW(52)
	RJMP _0x40
; 0000 003E                 break;
; 0000 003F             case 2:
_0x8:
	CPI  R30,LOW(0x2)
	LDI  R26,HIGH(0x2)
	CPC  R31,R26
	BRNE _0x9
; 0000 0040                 correctPass[j] = 1;
	CALL SUBOPT_0x2
	LDI  R26,LOW(1)
	STD  Z+0,R26
; 0000 0041                 lcd_putchar('1');
	LDI  R26,LOW(49)
	RJMP _0x40
; 0000 0042                 break;
; 0000 0043             case 3:
_0x9:
	CPI  R30,LOW(0x3)
	LDI  R26,HIGH(0x3)
	CPC  R31,R26
	BRNE _0xA
; 0000 0044                 correctPass[j] = 0;
	CALL SUBOPT_0x2
	LDI  R26,LOW(0)
	STD  Z+0,R26
; 0000 0045                 lcd_putchar('0');
	LDI  R26,LOW(48)
	RJMP _0x40
; 0000 0046                 break;
; 0000 0047             case 4:
_0xA:
	CPI  R30,LOW(0x4)
	LDI  R26,HIGH(0x4)
	CPC  R31,R26
	BRNE _0xB
; 0000 0048                 correctPass[j] = 8;
	CALL SUBOPT_0x2
	LDI  R26,LOW(8)
	STD  Z+0,R26
; 0000 0049                 lcd_putchar('8');
	LDI  R26,LOW(56)
	RJMP _0x40
; 0000 004A                 break;
; 0000 004B             case 5:
_0xB:
	CPI  R30,LOW(0x5)
	LDI  R26,HIGH(0x5)
	CPC  R31,R26
	BRNE _0xC
; 0000 004C                 correctPass[j] = 5;
	CALL SUBOPT_0x2
	LDI  R26,LOW(5)
	STD  Z+0,R26
; 0000 004D                 lcd_putchar('5');
	LDI  R26,LOW(53)
	RJMP _0x40
; 0000 004E                 break;
; 0000 004F             case 6:
_0xC:
	CPI  R30,LOW(0x6)
	LDI  R26,HIGH(0x6)
	CPC  R31,R26
	BRNE _0xD
; 0000 0050                 correctPass[j] = 2;
	CALL SUBOPT_0x2
	LDI  R26,LOW(2)
	STD  Z+0,R26
; 0000 0051                 lcd_putchar('2');
	LDI  R26,LOW(50)
	RJMP _0x40
; 0000 0052                 break;
; 0000 0053             case 7:
_0xD:
	CPI  R30,LOW(0x7)
	LDI  R26,HIGH(0x7)
	CPC  R31,R26
	BRNE _0xE
; 0000 0054                 correctPass[j] = 0;
	CALL SUBOPT_0x2
	LDI  R26,LOW(0)
	STD  Z+0,R26
; 0000 0055                 lcd_putchar('0');
	LDI  R26,LOW(48)
	RJMP _0x40
; 0000 0056                 break;
; 0000 0057             case 8:
_0xE:
	CPI  R30,LOW(0x8)
	LDI  R26,HIGH(0x8)
	CPC  R31,R26
	BRNE _0xF
; 0000 0058                 correctPass[j] = 9;
	CALL SUBOPT_0x2
	LDI  R26,LOW(9)
	STD  Z+0,R26
; 0000 0059                 lcd_putchar('9');
	LDI  R26,LOW(57)
	RJMP _0x40
; 0000 005A                 break;
; 0000 005B             case 9:
_0xF:
	CPI  R30,LOW(0x9)
	LDI  R26,HIGH(0x9)
	CPC  R31,R26
	BRNE _0x10
; 0000 005C                 correctPass[j] = 6;
	CALL SUBOPT_0x2
	LDI  R26,LOW(6)
	STD  Z+0,R26
; 0000 005D                 lcd_putchar('6');
	LDI  R26,LOW(54)
	RJMP _0x40
; 0000 005E                 break;
; 0000 005F             case 10:
_0x10:
	CPI  R30,LOW(0xA)
	LDI  R26,HIGH(0xA)
	CPC  R31,R26
	BRNE _0x11
; 0000 0060                 correctPass[j] = 3;
	CALL SUBOPT_0x2
	LDI  R26,LOW(3)
	STD  Z+0,R26
; 0000 0061                 lcd_putchar('3');
	LDI  R26,LOW(51)
	RJMP _0x40
; 0000 0062                 break;
; 0000 0063             case 11:
_0x11:
	CPI  R30,LOW(0xB)
	LDI  R26,HIGH(0xB)
	CPC  R31,R26
	BRNE _0x12
; 0000 0064                 correctPass[j] = '=';
	CALL SUBOPT_0x2
	LDI  R26,LOW(61)
	STD  Z+0,R26
; 0000 0065                 lcd_putchar('=');
	RJMP _0x40
; 0000 0066                 break;
; 0000 0067             case 12:
_0x12:
	CPI  R30,LOW(0xC)
	LDI  R26,HIGH(0xC)
	CPC  R31,R26
	BRNE _0x13
; 0000 0068                 correctPass[j] = '/';
	CALL SUBOPT_0x2
	LDI  R26,LOW(47)
	STD  Z+0,R26
; 0000 0069                 lcd_putchar('/');
	RJMP _0x40
; 0000 006A                 break;
; 0000 006B             case 13:
_0x13:
	CPI  R30,LOW(0xD)
	LDI  R26,HIGH(0xD)
	CPC  R31,R26
	BRNE _0x14
; 0000 006C                 correctPass[j] = '*';
	CALL SUBOPT_0x2
	LDI  R26,LOW(42)
	STD  Z+0,R26
; 0000 006D                 lcd_putchar('*');
	RJMP _0x40
; 0000 006E                 break;
; 0000 006F             case 14:
_0x14:
	CPI  R30,LOW(0xE)
	LDI  R26,HIGH(0xE)
	CPC  R31,R26
	BRNE _0x15
; 0000 0070                 correctPass[j] = '-';
	CALL SUBOPT_0x2
	LDI  R26,LOW(45)
	STD  Z+0,R26
; 0000 0071                 lcd_putchar('-');
	RJMP _0x40
; 0000 0072                 break;
; 0000 0073             case 15:
_0x15:
	CPI  R30,LOW(0xF)
	LDI  R26,HIGH(0xF)
	CPC  R31,R26
	BRNE _0x6
; 0000 0074                 correctPass[j] = '+';
	CALL SUBOPT_0x2
	LDI  R26,LOW(43)
	STD  Z+0,R26
; 0000 0075                 lcd_putchar('+');
_0x40:
	CALL _lcd_putchar
; 0000 0076         }
_0x6:
; 0000 0077         j++;
	INC  R7
; 0000 0078     }
; 0000 0079 
; 0000 007A     if(flag == 0)
_0x3:
	TST  R10
	BREQ PC+2
	RJMP _0x17
; 0000 007B     {
; 0000 007C         code[k] = PINC & 0x0f;
	MOV  R26,R6
	LDI  R27,0
	SUBI R26,LOW(-_code)
	SBCI R27,HIGH(-_code)
	IN   R30,0x13
	ANDI R30,LOW(0xF)
	ST   X,R30
; 0000 007D         switch(code[k])
	CALL SUBOPT_0x3
	LD   R30,Z
	LDI  R31,0
; 0000 007E         {
; 0000 007F             case 0:
	SBIW R30,0
	BRNE _0x1B
; 0000 0080                 code[k] = 7;
	CALL SUBOPT_0x3
	LDI  R26,LOW(7)
	STD  Z+0,R26
; 0000 0081                 lcd_putchar('7');
	LDI  R26,LOW(55)
	RJMP _0x41
; 0000 0082                 break;
; 0000 0083             case 1:
_0x1B:
	CPI  R30,LOW(0x1)
	LDI  R26,HIGH(0x1)
	CPC  R31,R26
	BRNE _0x1C
; 0000 0084                 code[k] = 4;
	CALL SUBOPT_0x3
	LDI  R26,LOW(4)
	STD  Z+0,R26
; 0000 0085                 lcd_putchar('4');
	LDI  R26,LOW(52)
	RJMP _0x41
; 0000 0086                 break;
; 0000 0087             case 2:
_0x1C:
	CPI  R30,LOW(0x2)
	LDI  R26,HIGH(0x2)
	CPC  R31,R26
	BRNE _0x1D
; 0000 0088                 code[k] = 1;
	CALL SUBOPT_0x3
	LDI  R26,LOW(1)
	STD  Z+0,R26
; 0000 0089                 lcd_putchar('1');
	LDI  R26,LOW(49)
	RJMP _0x41
; 0000 008A                 break;
; 0000 008B             case 3:
_0x1D:
	CPI  R30,LOW(0x3)
	LDI  R26,HIGH(0x3)
	CPC  R31,R26
	BRNE _0x1E
; 0000 008C                 code[k] = 0;
	CALL SUBOPT_0x3
	LDI  R26,LOW(0)
	STD  Z+0,R26
; 0000 008D                 lcd_putchar('0');
	LDI  R26,LOW(48)
	RJMP _0x41
; 0000 008E                 break;
; 0000 008F             case 4:
_0x1E:
	CPI  R30,LOW(0x4)
	LDI  R26,HIGH(0x4)
	CPC  R31,R26
	BRNE _0x1F
; 0000 0090                 code[k] = 8;
	CALL SUBOPT_0x3
	LDI  R26,LOW(8)
	STD  Z+0,R26
; 0000 0091                 lcd_putchar('8');
	LDI  R26,LOW(56)
	RJMP _0x41
; 0000 0092                 break;
; 0000 0093             case 5:
_0x1F:
	CPI  R30,LOW(0x5)
	LDI  R26,HIGH(0x5)
	CPC  R31,R26
	BRNE _0x20
; 0000 0094                 code[k] = 5;
	CALL SUBOPT_0x3
	LDI  R26,LOW(5)
	STD  Z+0,R26
; 0000 0095                 lcd_putchar('5');
	LDI  R26,LOW(53)
	RJMP _0x41
; 0000 0096                 break;
; 0000 0097             case 6:
_0x20:
	CPI  R30,LOW(0x6)
	LDI  R26,HIGH(0x6)
	CPC  R31,R26
	BRNE _0x21
; 0000 0098                 code[k] = 2;
	CALL SUBOPT_0x3
	LDI  R26,LOW(2)
	STD  Z+0,R26
; 0000 0099                 lcd_putchar('2');
	LDI  R26,LOW(50)
	RJMP _0x41
; 0000 009A                 break;
; 0000 009B             case 7:
_0x21:
	CPI  R30,LOW(0x7)
	LDI  R26,HIGH(0x7)
	CPC  R31,R26
	BRNE _0x22
; 0000 009C                 code[k] = 0;
	CALL SUBOPT_0x3
	LDI  R26,LOW(0)
	STD  Z+0,R26
; 0000 009D                 lcd_putchar('0');
	LDI  R26,LOW(48)
	RJMP _0x41
; 0000 009E                 break;
; 0000 009F             case 8:
_0x22:
	CPI  R30,LOW(0x8)
	LDI  R26,HIGH(0x8)
	CPC  R31,R26
	BRNE _0x23
; 0000 00A0                 code[k] = 9;
	CALL SUBOPT_0x3
	LDI  R26,LOW(9)
	STD  Z+0,R26
; 0000 00A1                 lcd_putchar('9');
	LDI  R26,LOW(57)
	RJMP _0x41
; 0000 00A2                 break;
; 0000 00A3             case 9:
_0x23:
	CPI  R30,LOW(0x9)
	LDI  R26,HIGH(0x9)
	CPC  R31,R26
	BRNE _0x24
; 0000 00A4                 code[k] = 6;
	CALL SUBOPT_0x3
	LDI  R26,LOW(6)
	STD  Z+0,R26
; 0000 00A5                 lcd_putchar('6');
	LDI  R26,LOW(54)
	RJMP _0x41
; 0000 00A6                 break;
; 0000 00A7             case 10:
_0x24:
	CPI  R30,LOW(0xA)
	LDI  R26,HIGH(0xA)
	CPC  R31,R26
	BRNE _0x25
; 0000 00A8                 code[k] = 3;
	CALL SUBOPT_0x3
	LDI  R26,LOW(3)
	STD  Z+0,R26
; 0000 00A9                 lcd_putchar('3');
	LDI  R26,LOW(51)
	RJMP _0x41
; 0000 00AA                 break;
; 0000 00AB             case 11:
_0x25:
	CPI  R30,LOW(0xB)
	LDI  R26,HIGH(0xB)
	CPC  R31,R26
	BRNE _0x26
; 0000 00AC                 code[k] = '=';
	CALL SUBOPT_0x3
	LDI  R26,LOW(61)
	STD  Z+0,R26
; 0000 00AD                 lcd_putchar('=');
	RJMP _0x41
; 0000 00AE                 break;
; 0000 00AF             case 12:
_0x26:
	CPI  R30,LOW(0xC)
	LDI  R26,HIGH(0xC)
	CPC  R31,R26
	BRNE _0x27
; 0000 00B0                 code[k] = '/';
	CALL SUBOPT_0x3
	LDI  R26,LOW(47)
	STD  Z+0,R26
; 0000 00B1                 lcd_putchar('/');
	RJMP _0x41
; 0000 00B2                 break;
; 0000 00B3             case 13:
_0x27:
	CPI  R30,LOW(0xD)
	LDI  R26,HIGH(0xD)
	CPC  R31,R26
	BRNE _0x28
; 0000 00B4                 code[k] = '*';
	CALL SUBOPT_0x3
	LDI  R26,LOW(42)
	STD  Z+0,R26
; 0000 00B5                 lcd_putchar('*');
	RJMP _0x41
; 0000 00B6                 break;
; 0000 00B7             case 14:
_0x28:
	CPI  R30,LOW(0xE)
	LDI  R26,HIGH(0xE)
	CPC  R31,R26
	BRNE _0x29
; 0000 00B8                 code[k] = '-';
	CALL SUBOPT_0x3
	LDI  R26,LOW(45)
	STD  Z+0,R26
; 0000 00B9                 lcd_putchar('-');
	RJMP _0x41
; 0000 00BA                 break;
; 0000 00BB             case 15:
_0x29:
	CPI  R30,LOW(0xF)
	LDI  R26,HIGH(0xF)
	CPC  R31,R26
	BRNE _0x1A
; 0000 00BC                 code[k] = '+';
	CALL SUBOPT_0x3
	LDI  R26,LOW(43)
	STD  Z+0,R26
; 0000 00BD                 lcd_putchar('+');
_0x41:
	RCALL _lcd_putchar
; 0000 00BE         }
_0x1A:
; 0000 00BF             k++;
	INC  R6
; 0000 00C0     }
; 0000 00C1 }
_0x17:
	LD   R30,Y+
	OUT  SREG,R30
	LD   R31,Y+
	LD   R30,Y+
	LD   R27,Y+
	LD   R26,Y+
	LD   R25,Y+
	LD   R24,Y+
	LD   R23,Y+
	LD   R22,Y+
	LD   R15,Y+
	LD   R1,Y+
	LD   R0,Y+
	RETI
; .FEND
;
;void main(void)
; 0000 00C4 {
_main:
; .FSTART _main
; 0000 00C5     DDRA = 0x00;
	LDI  R30,LOW(0)
	OUT  0x1A,R30
; 0000 00C6     PORTA = 0x00;
	OUT  0x1B,R30
; 0000 00C7 
; 0000 00C8     DDRB = 0x00;
	OUT  0x17,R30
; 0000 00C9     PORTB = 0x00;
	OUT  0x18,R30
; 0000 00CA 
; 0000 00CB     DDRC = 0x00;
	OUT  0x14,R30
; 0000 00CC     PORTC = 0x00;
	OUT  0x15,R30
; 0000 00CD 
; 0000 00CE     DDRD = 0x00;
	OUT  0x11,R30
; 0000 00CF     PORTD = 0x00;
	OUT  0x12,R30
; 0000 00D0 
; 0000 00D1     // External Interrupt(s) initialization
; 0000 00D2     // INT0: On
; 0000 00D3     // INT0 Mode: Falling Edge
; 0000 00D4     // INT1: Off
; 0000 00D5     // INT2: Off
; 0000 00D6     GICR|=(0<<INT1) | (1<<INT0) | (0<<INT2);
	IN   R30,0x3B
	ORI  R30,0x40
	OUT  0x3B,R30
; 0000 00D7     MCUCR=(0<<ISC11) | (0<<ISC10) | (1<<ISC01) | (0<<ISC00);
	LDI  R30,LOW(2)
	OUT  0x35,R30
; 0000 00D8     MCUCSR=(0<<ISC2);
	LDI  R30,LOW(0)
	OUT  0x34,R30
; 0000 00D9     GIFR=(0<<INTF1) | (1<<INTF0) | (0<<INTF2);
	LDI  R30,LOW(64)
	OUT  0x3A,R30
; 0000 00DA 
; 0000 00DB     // Bit-Banged I2C Bus initialization
; 0000 00DC     // I2C Port: PORTA
; 0000 00DD     // I2C SDA bit: 1
; 0000 00DE     // I2C SCL bit: 0
; 0000 00DF     // Bit Rate: 100 kHz
; 0000 00E0     // Note: I2C settings are specified in the
; 0000 00E1     // Project|Configure|C Compiler|Libraries|I2C menu.
; 0000 00E2     i2c_init();
	CALL _i2c_init
; 0000 00E3 
; 0000 00E4     lcd_init(16);
	LDI  R26,LOW(16)
	RCALL _lcd_init
; 0000 00E5 
; 0000 00E6     #asm("sei")
	sei
; 0000 00E7 
; 0000 00E8 
; 0000 00E9     for(i = 210; i <= 213; i++)
	LDI  R30,LOW(210)
	LDI  R31,HIGH(210)
	MOVW R4,R30
_0x2C:
	LDI  R30,LOW(213)
	LDI  R31,HIGH(213)
	CP   R30,R4
	CPC  R31,R5
	BRLO _0x2D
; 0000 00EA     {
; 0000 00EB         byteWrite(0x50, i, 0);
	LDI  R30,LOW(80)
	ST   -Y,R30
	ST   -Y,R5
	ST   -Y,R4
	LDI  R26,LOW(0)
	RCALL _byteWrite
; 0000 00EC     }
	MOVW R30,R4
	ADIW R30,1
	MOVW R4,R30
	RJMP _0x2C
_0x2D:
; 0000 00ED 
; 0000 00EE     if((randomRead(0x50, 210) == 0) &&  (randomRead(0x50, 211) == 0) && (randomRead(0x50, 212) == 0) && (randomRead(0x50 ...
	CALL SUBOPT_0x4
	CPI  R30,0
	BRNE _0x2F
	CALL SUBOPT_0x5
	CPI  R30,0
	BRNE _0x2F
	CALL SUBOPT_0x6
	CPI  R30,0
	BRNE _0x2F
	CALL SUBOPT_0x7
	CPI  R30,0
	BREQ _0x30
_0x2F:
	RJMP _0x2E
_0x30:
; 0000 00EF     {
; 0000 00F0         setPass = 0;
	CLR  R11
; 0000 00F1         lcd_gotoxy(0, 0);
	CALL SUBOPT_0x8
; 0000 00F2         lcd_putsf("Welcome");
	__POINTW2FN _0x0,0
	RCALL _lcd_putsf
; 0000 00F3         lcd_gotoxy(0, 1);
	CALL SUBOPT_0x9
; 0000 00F4         lcd_putsf("SetPassword:");
	__POINTW2FN _0x0,8
	RCALL _lcd_putsf
; 0000 00F5     }
; 0000 00F6 
; 0000 00F7 
; 0000 00F8     while (1)
_0x2E:
_0x31:
; 0000 00F9     {
; 0000 00FA         if(j == 4)
	LDI  R30,LOW(4)
	CP   R30,R7
	BRNE _0x34
; 0000 00FB         {
; 0000 00FC             j = 0;
	CLR  R7
; 0000 00FD             setPass = 1;
	LDI  R30,LOW(1)
	MOV  R11,R30
; 0000 00FE             byteWrite(0x50, 210, correctPass[0]);
	LDI  R30,LOW(80)
	ST   -Y,R30
	LDI  R30,LOW(210)
	LDI  R31,HIGH(210)
	ST   -Y,R31
	ST   -Y,R30
	LDS  R26,_correctPass
	CALL SUBOPT_0xA
; 0000 00FF             byteWrite(0x50, 211, correctPass[1]);
	LDI  R30,LOW(211)
	LDI  R31,HIGH(211)
	ST   -Y,R31
	ST   -Y,R30
	__GETB2MN _correctPass,1
	CALL SUBOPT_0xA
; 0000 0100             byteWrite(0x50, 212, correctPass[2]);
	LDI  R30,LOW(212)
	LDI  R31,HIGH(212)
	ST   -Y,R31
	ST   -Y,R30
	__GETB2MN _correctPass,2
	CALL SUBOPT_0xA
; 0000 0101             byteWrite(0x50, 213, correctPass[3]);
	LDI  R30,LOW(213)
	LDI  R31,HIGH(213)
	ST   -Y,R31
	ST   -Y,R30
	__GETB2MN _correctPass,3
	RCALL _byteWrite
; 0000 0102             lcd_clear();
	RCALL _lcd_clear
; 0000 0103             lcd_gotoxy(0, 0);
	CALL SUBOPT_0x8
; 0000 0104             lcd_putsf("Verify Password");
	__POINTW2FN _0x0,21
	CALL SUBOPT_0xB
; 0000 0105             delay_ms(3000);
; 0000 0106             lcd_clear();
	CALL SUBOPT_0xC
; 0000 0107             lcd_gotoxy(1, 0);
; 0000 0108             lcd_putsf("Enter Password:");
; 0000 0109             flag = 0;
; 0000 010A         }
; 0000 010B         if(k == 4)
_0x34:
	LDI  R30,LOW(4)
	CP   R30,R6
	BREQ PC+2
	RJMP _0x35
; 0000 010C         {
; 0000 010D             k = 0;
	CLR  R6
; 0000 010E             flag = 1;
	LDI  R30,LOW(1)
	MOV  R10,R30
; 0000 010F             if( (code[0] == randomRead(0x50, 210)) && (code[1] == randomRead(0x50, 211)) && (code[2] == randomRead(0x50, ...
	CALL SUBOPT_0x4
	LDS  R26,_code
	CP   R30,R26
	BRNE _0x37
	CALL SUBOPT_0x5
	__GETB2MN _code,1
	CP   R30,R26
	BRNE _0x37
	CALL SUBOPT_0x6
	__GETB2MN _code,2
	CP   R30,R26
	BRNE _0x37
	CALL SUBOPT_0x7
	__GETB2MN _code,3
	CP   R30,R26
	BREQ _0x38
_0x37:
	RJMP _0x36
_0x38:
; 0000 0110             {
; 0000 0111                 lcd_gotoxy(0, 1);
	CALL SUBOPT_0x9
; 0000 0112                 lcd_putsf("Login Succeeded!");
	__POINTW2FN _0x0,53
	CALL SUBOPT_0xB
; 0000 0113                 delay_ms(3000);
; 0000 0114                 lcd_clear();
	RJMP _0x42
; 0000 0115                 lcd_gotoxy(1, 0);
; 0000 0116                 lcd_putsf("Enter Password:");
; 0000 0117                 flag = 0;
; 0000 0118             }
; 0000 0119             else
_0x36:
; 0000 011A             {
; 0000 011B                 lcd_gotoxy(0, 1);
	CALL SUBOPT_0x9
; 0000 011C                 lcd_putsf("Login Failed!");
	__POINTW2FN _0x0,70
	CALL SUBOPT_0xB
; 0000 011D                 delay_ms(3000);
; 0000 011E                 lcd_clear();
	CALL SUBOPT_0xC
; 0000 011F                 lcd_gotoxy(1, 0);
; 0000 0120                 lcd_putsf("Enter Password:");
; 0000 0121                 flag = 0;
; 0000 0122                 z++;
	INC  R8
; 0000 0123                 if(z == 3)
	LDI  R30,LOW(3)
	CP   R30,R8
	BRNE _0x3A
; 0000 0124                 {
; 0000 0125                     z = 0;
	CLR  R8
; 0000 0126                     lcd_clear();
	RCALL _lcd_clear
; 0000 0127                     lcd_gotoxy(0, 0);
	CALL SUBOPT_0x8
; 0000 0128                     lcd_puts("SystemLocked!");
	__POINTW2MN _0x3B,0
	RCALL _lcd_puts
; 0000 0129                     for(e = 10; e > 0; e--)
	LDI  R30,LOW(10)
	MOV  R9,R30
_0x3D:
	LDI  R30,LOW(0)
	CP   R30,R9
	BRSH _0x3E
; 0000 012A                     {
; 0000 012B                         flag = 1;
	LDI  R30,LOW(1)
	MOV  R10,R30
; 0000 012C                         lcd_gotoxy(14, 0);
	LDI  R30,LOW(14)
	ST   -Y,R30
	LDI  R26,LOW(0)
	RCALL _lcd_gotoxy
; 0000 012D                         sprintf(str, "%2d", e);
	LDI  R30,LOW(_str)
	LDI  R31,HIGH(_str)
	ST   -Y,R31
	ST   -Y,R30
	__POINTW1FN _0x0,98
	ST   -Y,R31
	ST   -Y,R30
	MOV  R30,R9
	CLR  R31
	CLR  R22
	CLR  R23
	CALL __PUTPARD1
	LDI  R24,4
	CALL _sprintf
	ADIW R28,8
; 0000 012E                         lcd_puts(str);
	LDI  R26,LOW(_str)
	LDI  R27,HIGH(_str)
	RCALL _lcd_puts
; 0000 012F                         delay_ms(1000);
	LDI  R26,LOW(1000)
	LDI  R27,HIGH(1000)
	CALL _delay_ms
; 0000 0130                     }
	DEC  R9
	RJMP _0x3D
_0x3E:
; 0000 0131                     lcd_clear();
_0x42:
	RCALL _lcd_clear
; 0000 0132                     lcd_gotoxy(1, 0);
	LDI  R30,LOW(1)
	ST   -Y,R30
	LDI  R26,LOW(0)
	RCALL _lcd_gotoxy
; 0000 0133                     lcd_putsf("Enter Password:");
	__POINTW2FN _0x0,37
	RCALL _lcd_putsf
; 0000 0134                     flag = 0;
	CLR  R10
; 0000 0135                 }
; 0000 0136             }
_0x3A:
; 0000 0137 
; 0000 0138         }
; 0000 0139     }//End While(1)
_0x35:
	RJMP _0x31
; 0000 013A }//End main()
_0x3F:
	RJMP _0x3F
; .FEND

	.DSEG
_0x3B:
	.BYTE 0xE
	#ifndef __SLEEP_DEFINED__
	#define __SLEEP_DEFINED__
	.EQU __se_bit=0x80
	.EQU __sm_mask=0x70
	.EQU __sm_powerdown=0x20
	.EQU __sm_powersave=0x30
	.EQU __sm_standby=0x60
	.EQU __sm_ext_standby=0x70
	.EQU __sm_adc_noise_red=0x10
	.SET power_ctrl_reg=mcucr
	#endif

	.DSEG

	.CSEG
__lcd_write_nibble_G100:
; .FSTART __lcd_write_nibble_G100
	ST   -Y,R26
	IN   R30,0x18
	ANDI R30,LOW(0xF)
	MOV  R26,R30
	LD   R30,Y
	ANDI R30,LOW(0xF0)
	OR   R30,R26
	OUT  0x18,R30
	__DELAY_USB 13
	SBI  0x18,3
	__DELAY_USB 13
	CBI  0x18,3
	__DELAY_USB 13
	RJMP _0x20C0006
; .FEND
__lcd_write_data:
; .FSTART __lcd_write_data
	ST   -Y,R26
	LD   R26,Y
	RCALL __lcd_write_nibble_G100
    ld    r30,y
    swap  r30
    st    y,r30
	LD   R26,Y
	RCALL __lcd_write_nibble_G100
	__DELAY_USB 133
	RJMP _0x20C0006
; .FEND
_lcd_gotoxy:
; .FSTART _lcd_gotoxy
	ST   -Y,R26
	LD   R30,Y
	LDI  R31,0
	SUBI R30,LOW(-__base_y_G100)
	SBCI R31,HIGH(-__base_y_G100)
	LD   R30,Z
	LDD  R26,Y+1
	ADD  R26,R30
	RCALL __lcd_write_data
	LDD  R13,Y+1
	LDD  R12,Y+0
	ADIW R28,2
	RET
; .FEND
_lcd_clear:
; .FSTART _lcd_clear
	LDI  R26,LOW(2)
	CALL SUBOPT_0xD
	LDI  R26,LOW(12)
	RCALL __lcd_write_data
	LDI  R26,LOW(1)
	CALL SUBOPT_0xD
	LDI  R30,LOW(0)
	MOV  R12,R30
	MOV  R13,R30
	RET
; .FEND
_lcd_putchar:
; .FSTART _lcd_putchar
	ST   -Y,R26
	LD   R26,Y
	CPI  R26,LOW(0xA)
	BREQ _0x2000005
	LDS  R30,__lcd_maxx
	CP   R13,R30
	BRLO _0x2000004
_0x2000005:
	LDI  R30,LOW(0)
	ST   -Y,R30
	INC  R12
	MOV  R26,R12
	RCALL _lcd_gotoxy
	LD   R26,Y
	CPI  R26,LOW(0xA)
	BRNE _0x2000007
	RJMP _0x20C0006
_0x2000007:
_0x2000004:
	INC  R13
	SBI  0x18,1
	LD   R26,Y
	RCALL __lcd_write_data
	CBI  0x18,1
	RJMP _0x20C0006
; .FEND
_lcd_puts:
; .FSTART _lcd_puts
	ST   -Y,R27
	ST   -Y,R26
	ST   -Y,R17
_0x2000008:
	LDD  R26,Y+1
	LDD  R27,Y+1+1
	LD   R30,X+
	STD  Y+1,R26
	STD  Y+1+1,R27
	MOV  R17,R30
	CPI  R30,0
	BREQ _0x200000A
	MOV  R26,R17
	RCALL _lcd_putchar
	RJMP _0x2000008
_0x200000A:
	RJMP _0x20C0007
; .FEND
_lcd_putsf:
; .FSTART _lcd_putsf
	ST   -Y,R27
	ST   -Y,R26
	ST   -Y,R17
_0x200000B:
	LDD  R30,Y+1
	LDD  R31,Y+1+1
	ADIW R30,1
	STD  Y+1,R30
	STD  Y+1+1,R31
	SBIW R30,1
	LPM  R30,Z
	MOV  R17,R30
	CPI  R30,0
	BREQ _0x200000D
	MOV  R26,R17
	RCALL _lcd_putchar
	RJMP _0x200000B
_0x200000D:
_0x20C0007:
	LDD  R17,Y+0
	ADIW R28,3
	RET
; .FEND
_lcd_init:
; .FSTART _lcd_init
	ST   -Y,R26
	IN   R30,0x17
	ORI  R30,LOW(0xF0)
	OUT  0x17,R30
	SBI  0x17,3
	SBI  0x17,1
	SBI  0x17,2
	CBI  0x18,3
	CBI  0x18,1
	CBI  0x18,2
	LD   R30,Y
	STS  __lcd_maxx,R30
	SUBI R30,-LOW(128)
	__PUTB1MN __base_y_G100,2
	LD   R30,Y
	SUBI R30,-LOW(192)
	__PUTB1MN __base_y_G100,3
	LDI  R26,LOW(20)
	LDI  R27,0
	CALL _delay_ms
	CALL SUBOPT_0xE
	CALL SUBOPT_0xE
	CALL SUBOPT_0xE
	LDI  R26,LOW(32)
	RCALL __lcd_write_nibble_G100
	__DELAY_USW 200
	LDI  R26,LOW(40)
	RCALL __lcd_write_data
	LDI  R26,LOW(4)
	RCALL __lcd_write_data
	LDI  R26,LOW(133)
	RCALL __lcd_write_data
	LDI  R26,LOW(6)
	RCALL __lcd_write_data
	RCALL _lcd_clear
_0x20C0006:
	ADIW R28,1
	RET
; .FEND
	#ifndef __SLEEP_DEFINED__
	#define __SLEEP_DEFINED__
	.EQU __se_bit=0x80
	.EQU __sm_mask=0x70
	.EQU __sm_powerdown=0x20
	.EQU __sm_powersave=0x30
	.EQU __sm_standby=0x60
	.EQU __sm_ext_standby=0x70
	.EQU __sm_adc_noise_red=0x10
	.SET power_ctrl_reg=mcucr
	#endif

	.CSEG
_put_buff_G101:
; .FSTART _put_buff_G101
	ST   -Y,R27
	ST   -Y,R26
	ST   -Y,R17
	ST   -Y,R16
	LDD  R26,Y+2
	LDD  R27,Y+2+1
	ADIW R26,2
	CALL __GETW1P
	SBIW R30,0
	BREQ _0x2020010
	LDD  R26,Y+2
	LDD  R27,Y+2+1
	ADIW R26,4
	CALL __GETW1P
	MOVW R16,R30
	SBIW R30,0
	BREQ _0x2020012
	__CPWRN 16,17,2
	BRLO _0x2020013
	MOVW R30,R16
	SBIW R30,1
	MOVW R16,R30
	__PUTW1SNS 2,4
_0x2020012:
	LDD  R26,Y+2
	LDD  R27,Y+2+1
	ADIW R26,2
	CALL SUBOPT_0xF
	SBIW R30,1
	LDD  R26,Y+4
	STD  Z+0,R26
_0x2020013:
	LDD  R26,Y+2
	LDD  R27,Y+2+1
	CALL __GETW1P
	TST  R31
	BRMI _0x2020014
	CALL SUBOPT_0xF
_0x2020014:
	RJMP _0x2020015
_0x2020010:
	LDD  R26,Y+2
	LDD  R27,Y+2+1
	LDI  R30,LOW(65535)
	LDI  R31,HIGH(65535)
	ST   X+,R30
	ST   X,R31
_0x2020015:
	LDD  R17,Y+1
	LDD  R16,Y+0
	ADIW R28,5
	RET
; .FEND
__ftoe_G101:
; .FSTART __ftoe_G101
	CALL SUBOPT_0x10
	LDI  R30,LOW(128)
	STD  Y+2,R30
	LDI  R30,LOW(63)
	STD  Y+3,R30
	CALL __SAVELOCR4
	LDD  R30,Y+14
	LDD  R31,Y+14+1
	CPI  R30,LOW(0xFFFF)
	LDI  R26,HIGH(0xFFFF)
	CPC  R31,R26
	BRNE _0x2020019
	LDD  R30,Y+8
	LDD  R31,Y+8+1
	ST   -Y,R31
	ST   -Y,R30
	__POINTW2FN _0x2020000,0
	CALL _strcpyf
	RJMP _0x20C0005
_0x2020019:
	CPI  R30,LOW(0x7FFF)
	LDI  R26,HIGH(0x7FFF)
	CPC  R31,R26
	BRNE _0x2020018
	LDD  R30,Y+8
	LDD  R31,Y+8+1
	ST   -Y,R31
	ST   -Y,R30
	__POINTW2FN _0x2020000,1
	CALL _strcpyf
	RJMP _0x20C0005
_0x2020018:
	LDD  R26,Y+11
	CPI  R26,LOW(0x7)
	BRLO _0x202001B
	LDI  R30,LOW(6)
	STD  Y+11,R30
_0x202001B:
	LDD  R17,Y+11
_0x202001C:
	MOV  R30,R17
	SUBI R17,1
	CPI  R30,0
	BREQ _0x202001E
	CALL SUBOPT_0x11
	RJMP _0x202001C
_0x202001E:
	__GETD1S 12
	CALL __CPD10
	BRNE _0x202001F
	LDI  R19,LOW(0)
	CALL SUBOPT_0x11
	RJMP _0x2020020
_0x202001F:
	LDD  R19,Y+11
	CALL SUBOPT_0x12
	BREQ PC+2
	BRCC PC+2
	RJMP _0x2020021
	CALL SUBOPT_0x11
_0x2020022:
	CALL SUBOPT_0x12
	BRLO _0x2020024
	CALL SUBOPT_0x13
	CALL SUBOPT_0x14
	RJMP _0x2020022
_0x2020024:
	RJMP _0x2020025
_0x2020021:
_0x2020026:
	CALL SUBOPT_0x12
	BRSH _0x2020028
	CALL SUBOPT_0x13
	CALL SUBOPT_0x15
	CALL SUBOPT_0x16
	SUBI R19,LOW(1)
	RJMP _0x2020026
_0x2020028:
	CALL SUBOPT_0x11
_0x2020025:
	__GETD1S 12
	CALL SUBOPT_0x17
	CALL SUBOPT_0x16
	CALL SUBOPT_0x12
	BRLO _0x2020029
	CALL SUBOPT_0x13
	CALL SUBOPT_0x14
_0x2020029:
_0x2020020:
	LDI  R17,LOW(0)
_0x202002A:
	LDD  R30,Y+11
	CP   R30,R17
	BRLO _0x202002C
	__GETD2S 4
	CALL SUBOPT_0x18
	CALL SUBOPT_0x17
	MOVW R26,R30
	MOVW R24,R22
	CALL _floor
	__PUTD1S 4
	CALL SUBOPT_0x13
	CALL __DIVF21
	CALL __CFD1U
	MOV  R16,R30
	CALL SUBOPT_0x19
	CALL SUBOPT_0x1A
	CLR  R31
	CLR  R22
	CLR  R23
	CALL __CDF1
	__GETD2S 4
	CALL __MULF12
	CALL SUBOPT_0x13
	CALL SUBOPT_0x1B
	CALL SUBOPT_0x16
	MOV  R30,R17
	SUBI R17,-1
	CPI  R30,0
	BRNE _0x202002A
	CALL SUBOPT_0x19
	LDI  R30,LOW(46)
	ST   X,R30
	RJMP _0x202002A
_0x202002C:
	CALL SUBOPT_0x1C
	SBIW R30,1
	LDD  R26,Y+10
	STD  Z+0,R26
	CPI  R19,0
	BRGE _0x202002E
	NEG  R19
	LDD  R26,Y+8
	LDD  R27,Y+8+1
	LDI  R30,LOW(45)
	RJMP _0x2020113
_0x202002E:
	LDD  R26,Y+8
	LDD  R27,Y+8+1
	LDI  R30,LOW(43)
_0x2020113:
	ST   X,R30
	CALL SUBOPT_0x1C
	CALL SUBOPT_0x1C
	SBIW R30,1
	MOVW R22,R30
	MOV  R26,R19
	LDI  R30,LOW(10)
	CALL __DIVB21
	SUBI R30,-LOW(48)
	MOVW R26,R22
	ST   X,R30
	CALL SUBOPT_0x1C
	SBIW R30,1
	MOVW R22,R30
	MOV  R26,R19
	LDI  R30,LOW(10)
	CALL __MODB21
	SUBI R30,-LOW(48)
	MOVW R26,R22
	ST   X,R30
	LDD  R26,Y+8
	LDD  R27,Y+8+1
	LDI  R30,LOW(0)
	ST   X,R30
_0x20C0005:
	CALL __LOADLOCR4
	ADIW R28,16
	RET
; .FEND
__print_G101:
; .FSTART __print_G101
	ST   -Y,R27
	ST   -Y,R26
	SBIW R28,63
	SBIW R28,17
	CALL __SAVELOCR6
	LDI  R17,0
	__GETW1SX 88
	STD  Y+8,R30
	STD  Y+8+1,R31
	__GETW1SX 86
	STD  Y+6,R30
	STD  Y+6+1,R31
	LDD  R26,Y+6
	LDD  R27,Y+6+1
	LDI  R30,LOW(0)
	LDI  R31,HIGH(0)
	ST   X+,R30
	ST   X,R31
_0x2020030:
	MOVW R26,R28
	SUBI R26,LOW(-(92))
	SBCI R27,HIGH(-(92))
	CALL SUBOPT_0xF
	SBIW R30,1
	LPM  R30,Z
	MOV  R18,R30
	CPI  R30,0
	BRNE PC+2
	RJMP _0x2020032
	MOV  R30,R17
	CPI  R30,0
	BRNE _0x2020036
	CPI  R18,37
	BRNE _0x2020037
	LDI  R17,LOW(1)
	RJMP _0x2020038
_0x2020037:
	CALL SUBOPT_0x1D
_0x2020038:
	RJMP _0x2020035
_0x2020036:
	CPI  R30,LOW(0x1)
	BRNE _0x2020039
	CPI  R18,37
	BRNE _0x202003A
	CALL SUBOPT_0x1D
	RJMP _0x2020114
_0x202003A:
	LDI  R17,LOW(2)
	LDI  R30,LOW(0)
	STD  Y+21,R30
	LDI  R16,LOW(0)
	CPI  R18,45
	BRNE _0x202003B
	LDI  R16,LOW(1)
	RJMP _0x2020035
_0x202003B:
	CPI  R18,43
	BRNE _0x202003C
	LDI  R30,LOW(43)
	STD  Y+21,R30
	RJMP _0x2020035
_0x202003C:
	CPI  R18,32
	BRNE _0x202003D
	LDI  R30,LOW(32)
	STD  Y+21,R30
	RJMP _0x2020035
_0x202003D:
	RJMP _0x202003E
_0x2020039:
	CPI  R30,LOW(0x2)
	BRNE _0x202003F
_0x202003E:
	LDI  R21,LOW(0)
	LDI  R17,LOW(3)
	CPI  R18,48
	BRNE _0x2020040
	ORI  R16,LOW(128)
	RJMP _0x2020035
_0x2020040:
	RJMP _0x2020041
_0x202003F:
	CPI  R30,LOW(0x3)
	BRNE _0x2020042
_0x2020041:
	CPI  R18,48
	BRLO _0x2020044
	CPI  R18,58
	BRLO _0x2020045
_0x2020044:
	RJMP _0x2020043
_0x2020045:
	LDI  R26,LOW(10)
	MUL  R21,R26
	MOV  R21,R0
	MOV  R30,R18
	SUBI R30,LOW(48)
	ADD  R21,R30
	RJMP _0x2020035
_0x2020043:
	LDI  R20,LOW(0)
	CPI  R18,46
	BRNE _0x2020046
	LDI  R17,LOW(4)
	RJMP _0x2020035
_0x2020046:
	RJMP _0x2020047
_0x2020042:
	CPI  R30,LOW(0x4)
	BRNE _0x2020049
	CPI  R18,48
	BRLO _0x202004B
	CPI  R18,58
	BRLO _0x202004C
_0x202004B:
	RJMP _0x202004A
_0x202004C:
	ORI  R16,LOW(32)
	LDI  R26,LOW(10)
	MUL  R20,R26
	MOV  R20,R0
	MOV  R30,R18
	SUBI R30,LOW(48)
	ADD  R20,R30
	RJMP _0x2020035
_0x202004A:
_0x2020047:
	CPI  R18,108
	BRNE _0x202004D
	ORI  R16,LOW(2)
	LDI  R17,LOW(5)
	RJMP _0x2020035
_0x202004D:
	RJMP _0x202004E
_0x2020049:
	CPI  R30,LOW(0x5)
	BREQ PC+2
	RJMP _0x2020035
_0x202004E:
	MOV  R30,R18
	CPI  R30,LOW(0x63)
	BRNE _0x2020053
	CALL SUBOPT_0x1E
	CALL SUBOPT_0x1F
	CALL SUBOPT_0x1E
	LDD  R26,Z+4
	ST   -Y,R26
	CALL SUBOPT_0x20
	RJMP _0x2020054
_0x2020053:
	CPI  R30,LOW(0x45)
	BREQ _0x2020057
	CPI  R30,LOW(0x65)
	BRNE _0x2020058
_0x2020057:
	RJMP _0x2020059
_0x2020058:
	CPI  R30,LOW(0x66)
	BREQ PC+2
	RJMP _0x202005A
_0x2020059:
	MOVW R30,R28
	ADIW R30,22
	STD  Y+14,R30
	STD  Y+14+1,R31
	CALL SUBOPT_0x21
	CALL __GETD1P
	CALL SUBOPT_0x22
	CALL SUBOPT_0x23
	LDD  R26,Y+13
	TST  R26
	BRMI _0x202005B
	LDD  R26,Y+21
	CPI  R26,LOW(0x2B)
	BREQ _0x202005D
	CPI  R26,LOW(0x20)
	BREQ _0x202005F
	RJMP _0x2020060
_0x202005B:
	CALL SUBOPT_0x24
	CALL __ANEGF1
	CALL SUBOPT_0x22
	LDI  R30,LOW(45)
	STD  Y+21,R30
_0x202005D:
	SBRS R16,7
	RJMP _0x2020061
	LDD  R30,Y+21
	ST   -Y,R30
	CALL SUBOPT_0x20
	RJMP _0x2020062
_0x2020061:
_0x202005F:
	LDD  R30,Y+14
	LDD  R31,Y+14+1
	ADIW R30,1
	STD  Y+14,R30
	STD  Y+14+1,R31
	SBIW R30,1
	LDD  R26,Y+21
	STD  Z+0,R26
_0x2020062:
_0x2020060:
	SBRS R16,5
	LDI  R20,LOW(6)
	CPI  R18,102
	BRNE _0x2020064
	CALL SUBOPT_0x24
	CALL __PUTPARD1
	ST   -Y,R20
	LDD  R26,Y+19
	LDD  R27,Y+19+1
	CALL _ftoa
	RJMP _0x2020065
_0x2020064:
	CALL SUBOPT_0x24
	CALL __PUTPARD1
	ST   -Y,R20
	ST   -Y,R18
	LDD  R26,Y+20
	LDD  R27,Y+20+1
	RCALL __ftoe_G101
_0x2020065:
	MOVW R30,R28
	ADIW R30,22
	CALL SUBOPT_0x25
	RJMP _0x2020066
_0x202005A:
	CPI  R30,LOW(0x73)
	BRNE _0x2020068
	CALL SUBOPT_0x23
	CALL SUBOPT_0x26
	CALL SUBOPT_0x25
	RJMP _0x2020069
_0x2020068:
	CPI  R30,LOW(0x70)
	BRNE _0x202006B
	CALL SUBOPT_0x23
	CALL SUBOPT_0x26
	STD  Y+14,R30
	STD  Y+14+1,R31
	LDD  R26,Y+14
	LDD  R27,Y+14+1
	CALL _strlenf
	MOV  R17,R30
	ORI  R16,LOW(8)
_0x2020069:
	ANDI R16,LOW(127)
	CPI  R20,0
	BREQ _0x202006D
	CP   R20,R17
	BRLO _0x202006E
_0x202006D:
	RJMP _0x202006C
_0x202006E:
	MOV  R17,R20
_0x202006C:
_0x2020066:
	LDI  R20,LOW(0)
	LDI  R30,LOW(0)
	STD  Y+20,R30
	LDI  R19,LOW(0)
	RJMP _0x202006F
_0x202006B:
	CPI  R30,LOW(0x64)
	BREQ _0x2020072
	CPI  R30,LOW(0x69)
	BRNE _0x2020073
_0x2020072:
	ORI  R16,LOW(4)
	RJMP _0x2020074
_0x2020073:
	CPI  R30,LOW(0x75)
	BRNE _0x2020075
_0x2020074:
	LDI  R30,LOW(10)
	STD  Y+20,R30
	SBRS R16,1
	RJMP _0x2020076
	__GETD1N 0x3B9ACA00
	CALL SUBOPT_0x27
	LDI  R17,LOW(10)
	RJMP _0x2020077
_0x2020076:
	__GETD1N 0x2710
	CALL SUBOPT_0x27
	LDI  R17,LOW(5)
	RJMP _0x2020077
_0x2020075:
	CPI  R30,LOW(0x58)
	BRNE _0x2020079
	ORI  R16,LOW(8)
	RJMP _0x202007A
_0x2020079:
	CPI  R30,LOW(0x78)
	BREQ PC+2
	RJMP _0x20200B8
_0x202007A:
	LDI  R30,LOW(16)
	STD  Y+20,R30
	SBRS R16,1
	RJMP _0x202007C
	__GETD1N 0x10000000
	CALL SUBOPT_0x27
	LDI  R17,LOW(8)
	RJMP _0x2020077
_0x202007C:
	__GETD1N 0x1000
	CALL SUBOPT_0x27
	LDI  R17,LOW(4)
_0x2020077:
	CPI  R20,0
	BREQ _0x202007D
	ANDI R16,LOW(127)
	RJMP _0x202007E
_0x202007D:
	LDI  R20,LOW(1)
_0x202007E:
	SBRS R16,1
	RJMP _0x202007F
	CALL SUBOPT_0x23
	CALL SUBOPT_0x21
	ADIW R26,4
	CALL __GETD1P
	RJMP _0x2020115
_0x202007F:
	SBRS R16,2
	RJMP _0x2020081
	CALL SUBOPT_0x23
	CALL SUBOPT_0x26
	CALL __CWD1
	RJMP _0x2020115
_0x2020081:
	CALL SUBOPT_0x23
	CALL SUBOPT_0x26
	CLR  R22
	CLR  R23
_0x2020115:
	__PUTD1S 10
	SBRS R16,2
	RJMP _0x2020083
	LDD  R26,Y+13
	TST  R26
	BRPL _0x2020084
	CALL SUBOPT_0x24
	CALL __ANEGD1
	CALL SUBOPT_0x22
	LDI  R30,LOW(45)
	STD  Y+21,R30
_0x2020084:
	LDD  R30,Y+21
	CPI  R30,0
	BREQ _0x2020085
	SUBI R17,-LOW(1)
	SUBI R20,-LOW(1)
	RJMP _0x2020086
_0x2020085:
	ANDI R16,LOW(251)
_0x2020086:
_0x2020083:
	MOV  R19,R20
_0x202006F:
	SBRC R16,0
	RJMP _0x2020087
_0x2020088:
	CP   R17,R21
	BRSH _0x202008B
	CP   R19,R21
	BRLO _0x202008C
_0x202008B:
	RJMP _0x202008A
_0x202008C:
	SBRS R16,7
	RJMP _0x202008D
	SBRS R16,2
	RJMP _0x202008E
	ANDI R16,LOW(251)
	LDD  R18,Y+21
	SUBI R17,LOW(1)
	RJMP _0x202008F
_0x202008E:
	LDI  R18,LOW(48)
_0x202008F:
	RJMP _0x2020090
_0x202008D:
	LDI  R18,LOW(32)
_0x2020090:
	CALL SUBOPT_0x1D
	SUBI R21,LOW(1)
	RJMP _0x2020088
_0x202008A:
_0x2020087:
_0x2020091:
	CP   R17,R20
	BRSH _0x2020093
	ORI  R16,LOW(16)
	SBRS R16,2
	RJMP _0x2020094
	CALL SUBOPT_0x28
	BREQ _0x2020095
	SUBI R21,LOW(1)
_0x2020095:
	SUBI R17,LOW(1)
	SUBI R20,LOW(1)
_0x2020094:
	LDI  R30,LOW(48)
	ST   -Y,R30
	CALL SUBOPT_0x20
	CPI  R21,0
	BREQ _0x2020096
	SUBI R21,LOW(1)
_0x2020096:
	SUBI R20,LOW(1)
	RJMP _0x2020091
_0x2020093:
	MOV  R19,R17
	LDD  R30,Y+20
	CPI  R30,0
	BRNE _0x2020097
_0x2020098:
	CPI  R19,0
	BREQ _0x202009A
	SBRS R16,3
	RJMP _0x202009B
	LDD  R30,Y+14
	LDD  R31,Y+14+1
	LPM  R18,Z+
	STD  Y+14,R30
	STD  Y+14+1,R31
	RJMP _0x202009C
_0x202009B:
	LDD  R26,Y+14
	LDD  R27,Y+14+1
	LD   R18,X+
	STD  Y+14,R26
	STD  Y+14+1,R27
_0x202009C:
	CALL SUBOPT_0x1D
	CPI  R21,0
	BREQ _0x202009D
	SUBI R21,LOW(1)
_0x202009D:
	SUBI R19,LOW(1)
	RJMP _0x2020098
_0x202009A:
	RJMP _0x202009E
_0x2020097:
_0x20200A0:
	CALL SUBOPT_0x29
	CALL __DIVD21U
	MOV  R18,R30
	CPI  R18,10
	BRLO _0x20200A2
	SBRS R16,3
	RJMP _0x20200A3
	SUBI R18,-LOW(55)
	RJMP _0x20200A4
_0x20200A3:
	SUBI R18,-LOW(87)
_0x20200A4:
	RJMP _0x20200A5
_0x20200A2:
	SUBI R18,-LOW(48)
_0x20200A5:
	SBRC R16,4
	RJMP _0x20200A7
	CPI  R18,49
	BRSH _0x20200A9
	__GETD2S 16
	__CPD2N 0x1
	BRNE _0x20200A8
_0x20200A9:
	RJMP _0x20200AB
_0x20200A8:
	CP   R20,R19
	BRSH _0x2020116
	CP   R21,R19
	BRLO _0x20200AE
	SBRS R16,0
	RJMP _0x20200AF
_0x20200AE:
	RJMP _0x20200AD
_0x20200AF:
	LDI  R18,LOW(32)
	SBRS R16,7
	RJMP _0x20200B0
_0x2020116:
	LDI  R18,LOW(48)
_0x20200AB:
	ORI  R16,LOW(16)
	SBRS R16,2
	RJMP _0x20200B1
	CALL SUBOPT_0x28
	BREQ _0x20200B2
	SUBI R21,LOW(1)
_0x20200B2:
_0x20200B1:
_0x20200B0:
_0x20200A7:
	CALL SUBOPT_0x1D
	CPI  R21,0
	BREQ _0x20200B3
	SUBI R21,LOW(1)
_0x20200B3:
_0x20200AD:
	SUBI R19,LOW(1)
	CALL SUBOPT_0x29
	CALL __MODD21U
	CALL SUBOPT_0x22
	LDD  R30,Y+20
	__GETD2S 16
	CLR  R31
	CLR  R22
	CLR  R23
	CALL __DIVD21U
	CALL SUBOPT_0x27
	__GETD1S 16
	CALL __CPD10
	BREQ _0x20200A1
	RJMP _0x20200A0
_0x20200A1:
_0x202009E:
	SBRS R16,0
	RJMP _0x20200B4
_0x20200B5:
	CPI  R21,0
	BREQ _0x20200B7
	SUBI R21,LOW(1)
	LDI  R30,LOW(32)
	ST   -Y,R30
	CALL SUBOPT_0x20
	RJMP _0x20200B5
_0x20200B7:
_0x20200B4:
_0x20200B8:
_0x2020054:
_0x2020114:
	LDI  R17,LOW(0)
_0x2020035:
	RJMP _0x2020030
_0x2020032:
	LDD  R26,Y+6
	LDD  R27,Y+6+1
	CALL __GETW1P
	CALL __LOADLOCR6
	ADIW R28,63
	ADIW R28,31
	RET
; .FEND
_sprintf:
; .FSTART _sprintf
	PUSH R15
	MOV  R15,R24
	SBIW R28,6
	CALL __SAVELOCR4
	CALL SUBOPT_0x2A
	SBIW R30,0
	BRNE _0x20200B9
	LDI  R30,LOW(65535)
	LDI  R31,HIGH(65535)
	RJMP _0x20C0004
_0x20200B9:
	MOVW R26,R28
	ADIW R26,6
	CALL __ADDW2R15
	MOVW R16,R26
	CALL SUBOPT_0x2A
	STD  Y+6,R30
	STD  Y+6+1,R31
	LDI  R30,LOW(0)
	STD  Y+8,R30
	STD  Y+8+1,R30
	MOVW R26,R28
	ADIW R26,10
	CALL __ADDW2R15
	CALL __GETW1P
	ST   -Y,R31
	ST   -Y,R30
	ST   -Y,R17
	ST   -Y,R16
	LDI  R30,LOW(_put_buff_G101)
	LDI  R31,HIGH(_put_buff_G101)
	ST   -Y,R31
	ST   -Y,R30
	MOVW R26,R28
	ADIW R26,10
	RCALL __print_G101
	MOVW R18,R30
	LDD  R26,Y+6
	LDD  R27,Y+6+1
	LDI  R30,LOW(0)
	ST   X,R30
	MOVW R30,R18
_0x20C0004:
	CALL __LOADLOCR4
	ADIW R28,10
	POP  R15
	RET
; .FEND

	.CSEG

	.CSEG
_strcpyf:
; .FSTART _strcpyf
	ST   -Y,R27
	ST   -Y,R26
    ld   r30,y+
    ld   r31,y+
    ld   r26,y+
    ld   r27,y+
    movw r24,r26
strcpyf0:
	lpm  r0,z+
    st   x+,r0
    tst  r0
    brne strcpyf0
    movw r30,r24
    ret
; .FEND
_strlen:
; .FSTART _strlen
	ST   -Y,R27
	ST   -Y,R26
    ld   r26,y+
    ld   r27,y+
    clr  r30
    clr  r31
strlen0:
    ld   r22,x+
    tst  r22
    breq strlen1
    adiw r30,1
    rjmp strlen0
strlen1:
    ret
; .FEND
_strlenf:
; .FSTART _strlenf
	ST   -Y,R27
	ST   -Y,R26
    clr  r26
    clr  r27
    ld   r30,y+
    ld   r31,y+
strlenf0:
	lpm  r0,z+
    tst  r0
    breq strlenf1
    adiw r26,1
    rjmp strlenf0
strlenf1:
    movw r30,r26
    ret
; .FEND

	.CSEG
_ftrunc:
; .FSTART _ftrunc
	CALL __PUTPARD2
   ldd  r23,y+3
   ldd  r22,y+2
   ldd  r31,y+1
   ld   r30,y
   bst  r23,7
   lsl  r23
   sbrc r22,7
   sbr  r23,1
   mov  r25,r23
   subi r25,0x7e
   breq __ftrunc0
   brcs __ftrunc0
   cpi  r25,24
   brsh __ftrunc1
   clr  r26
   clr  r27
   clr  r24
__ftrunc2:
   sec
   ror  r24
   ror  r27
   ror  r26
   dec  r25
   brne __ftrunc2
   and  r30,r26
   and  r31,r27
   and  r22,r24
   rjmp __ftrunc1
__ftrunc0:
   clt
   clr  r23
   clr  r30
   clr  r31
   clr  r22
__ftrunc1:
   cbr  r22,0x80
   lsr  r23
   brcc __ftrunc3
   sbr  r22,0x80
__ftrunc3:
   bld  r23,7
   ld   r26,y+
   ld   r27,y+
   ld   r24,y+
   ld   r25,y+
   cp   r30,r26
   cpc  r31,r27
   cpc  r22,r24
   cpc  r23,r25
   bst  r25,7
   ret
; .FEND
_floor:
; .FSTART _floor
	CALL __PUTPARD2
	CALL __GETD2S0
	CALL _ftrunc
	CALL __PUTD1S0
    brne __floor1
__floor0:
	CALL __GETD1S0
	RJMP _0x20C0003
__floor1:
    brtc __floor0
	CALL __GETD1S0
	__GETD2N 0x3F800000
	CALL __SUBF12
_0x20C0003:
	ADIW R28,4
	RET
; .FEND

	.CSEG
_ftoa:
; .FSTART _ftoa
	RCALL SUBOPT_0x10
	LDI  R30,LOW(0)
	STD  Y+2,R30
	LDI  R30,LOW(63)
	STD  Y+3,R30
	ST   -Y,R17
	ST   -Y,R16
	LDD  R30,Y+11
	LDD  R31,Y+11+1
	CPI  R30,LOW(0xFFFF)
	LDI  R26,HIGH(0xFFFF)
	CPC  R31,R26
	BRNE _0x20A000D
	RCALL SUBOPT_0x2B
	__POINTW2FN _0x20A0000,0
	CALL _strcpyf
	RJMP _0x20C0002
_0x20A000D:
	CPI  R30,LOW(0x7FFF)
	LDI  R26,HIGH(0x7FFF)
	CPC  R31,R26
	BRNE _0x20A000C
	RCALL SUBOPT_0x2B
	__POINTW2FN _0x20A0000,1
	CALL _strcpyf
	RJMP _0x20C0002
_0x20A000C:
	LDD  R26,Y+12
	TST  R26
	BRPL _0x20A000F
	__GETD1S 9
	CALL __ANEGF1
	RCALL SUBOPT_0x2C
	RCALL SUBOPT_0x2D
	LDI  R30,LOW(45)
	ST   X,R30
_0x20A000F:
	LDD  R26,Y+8
	CPI  R26,LOW(0x7)
	BRLO _0x20A0010
	LDI  R30,LOW(6)
	STD  Y+8,R30
_0x20A0010:
	LDD  R17,Y+8
_0x20A0011:
	MOV  R30,R17
	SUBI R17,1
	CPI  R30,0
	BREQ _0x20A0013
	RCALL SUBOPT_0x2E
	RCALL SUBOPT_0x18
	RCALL SUBOPT_0x2F
	RJMP _0x20A0011
_0x20A0013:
	RCALL SUBOPT_0x30
	CALL __ADDF12
	RCALL SUBOPT_0x2C
	LDI  R17,LOW(0)
	__GETD1N 0x3F800000
	RCALL SUBOPT_0x2F
_0x20A0014:
	RCALL SUBOPT_0x30
	CALL __CMPF12
	BRLO _0x20A0016
	RCALL SUBOPT_0x2E
	RCALL SUBOPT_0x15
	RCALL SUBOPT_0x2F
	SUBI R17,-LOW(1)
	CPI  R17,39
	BRLO _0x20A0017
	RCALL SUBOPT_0x2B
	__POINTW2FN _0x20A0000,5
	CALL _strcpyf
	RJMP _0x20C0002
_0x20A0017:
	RJMP _0x20A0014
_0x20A0016:
	CPI  R17,0
	BRNE _0x20A0018
	RCALL SUBOPT_0x2D
	LDI  R30,LOW(48)
	ST   X,R30
	RJMP _0x20A0019
_0x20A0018:
_0x20A001A:
	MOV  R30,R17
	SUBI R17,1
	CPI  R30,0
	BREQ _0x20A001C
	RCALL SUBOPT_0x2E
	RCALL SUBOPT_0x18
	RCALL SUBOPT_0x17
	MOVW R26,R30
	MOVW R24,R22
	CALL _floor
	RCALL SUBOPT_0x2F
	RCALL SUBOPT_0x30
	CALL __DIVF21
	CALL __CFD1U
	MOV  R16,R30
	RCALL SUBOPT_0x2D
	RCALL SUBOPT_0x1A
	LDI  R31,0
	RCALL SUBOPT_0x2E
	CALL __CWD1
	CALL __CDF1
	CALL __MULF12
	RCALL SUBOPT_0x31
	RCALL SUBOPT_0x1B
	RCALL SUBOPT_0x2C
	RJMP _0x20A001A
_0x20A001C:
_0x20A0019:
	LDD  R30,Y+8
	CPI  R30,0
	BREQ _0x20C0001
	RCALL SUBOPT_0x2D
	LDI  R30,LOW(46)
	ST   X,R30
_0x20A001E:
	LDD  R30,Y+8
	SUBI R30,LOW(1)
	STD  Y+8,R30
	SUBI R30,-LOW(1)
	BREQ _0x20A0020
	RCALL SUBOPT_0x31
	RCALL SUBOPT_0x15
	RCALL SUBOPT_0x2C
	__GETD1S 9
	CALL __CFD1U
	MOV  R16,R30
	RCALL SUBOPT_0x2D
	RCALL SUBOPT_0x1A
	LDI  R31,0
	RCALL SUBOPT_0x31
	CALL __CWD1
	CALL __CDF1
	RCALL SUBOPT_0x1B
	RCALL SUBOPT_0x2C
	RJMP _0x20A001E
_0x20A0020:
_0x20C0001:
	LDD  R26,Y+6
	LDD  R27,Y+6+1
	LDI  R30,LOW(0)
	ST   X,R30
_0x20C0002:
	LDD  R17,Y+1
	LDD  R16,Y+0
	ADIW R28,13
	RET
; .FEND

	.DSEG

	.CSEG

	.DSEG
_str:
	.BYTE 0x2
_correctPass:
	.BYTE 0x4
_code:
	.BYTE 0x4
__base_y_G100:
	.BYTE 0x4
__lcd_maxx:
	.BYTE 0x1
__seed_G105:
	.BYTE 0x4

	.CSEG
;OPTIMIZER ADDED SUBROUTINE, CALLED 2 TIMES, CODE SIZE REDUCTION:3 WORDS
SUBOPT_0x0:
	CALL _i2c_write
	MOV  R26,R16
	CALL _i2c_write
	MOV  R26,R17
	JMP  _i2c_write

;OPTIMIZER ADDED SUBROUTINE, CALLED 2 TIMES, CODE SIZE REDUCTION:1 WORDS
SUBOPT_0x1:
	CALL _i2c_stop
	LDI  R26,LOW(10)
	LDI  R27,0
	JMP  _delay_ms

;OPTIMIZER ADDED SUBROUTINE, CALLED 17 TIMES, CODE SIZE REDUCTION:29 WORDS
SUBOPT_0x2:
	MOV  R30,R7
	LDI  R31,0
	SUBI R30,LOW(-_correctPass)
	SBCI R31,HIGH(-_correctPass)
	RET

;OPTIMIZER ADDED SUBROUTINE, CALLED 17 TIMES, CODE SIZE REDUCTION:29 WORDS
SUBOPT_0x3:
	MOV  R30,R6
	LDI  R31,0
	SUBI R30,LOW(-_code)
	SBCI R31,HIGH(-_code)
	RET

;OPTIMIZER ADDED SUBROUTINE, CALLED 2 TIMES, CODE SIZE REDUCTION:1 WORDS
SUBOPT_0x4:
	LDI  R30,LOW(80)
	ST   -Y,R30
	LDI  R26,LOW(210)
	LDI  R27,0
	JMP  _randomRead

;OPTIMIZER ADDED SUBROUTINE, CALLED 2 TIMES, CODE SIZE REDUCTION:1 WORDS
SUBOPT_0x5:
	LDI  R30,LOW(80)
	ST   -Y,R30
	LDI  R26,LOW(211)
	LDI  R27,0
	JMP  _randomRead

;OPTIMIZER ADDED SUBROUTINE, CALLED 2 TIMES, CODE SIZE REDUCTION:1 WORDS
SUBOPT_0x6:
	LDI  R30,LOW(80)
	ST   -Y,R30
	LDI  R26,LOW(212)
	LDI  R27,0
	JMP  _randomRead

;OPTIMIZER ADDED SUBROUTINE, CALLED 2 TIMES, CODE SIZE REDUCTION:1 WORDS
SUBOPT_0x7:
	LDI  R30,LOW(80)
	ST   -Y,R30
	LDI  R26,LOW(213)
	LDI  R27,0
	JMP  _randomRead

;OPTIMIZER ADDED SUBROUTINE, CALLED 3 TIMES, CODE SIZE REDUCTION:3 WORDS
SUBOPT_0x8:
	LDI  R30,LOW(0)
	ST   -Y,R30
	LDI  R26,LOW(0)
	JMP  _lcd_gotoxy

;OPTIMIZER ADDED SUBROUTINE, CALLED 3 TIMES, CODE SIZE REDUCTION:3 WORDS
SUBOPT_0x9:
	LDI  R30,LOW(0)
	ST   -Y,R30
	LDI  R26,LOW(1)
	JMP  _lcd_gotoxy

;OPTIMIZER ADDED SUBROUTINE, CALLED 3 TIMES, CODE SIZE REDUCTION:1 WORDS
SUBOPT_0xA:
	CALL _byteWrite
	LDI  R30,LOW(80)
	ST   -Y,R30
	RET

;OPTIMIZER ADDED SUBROUTINE, CALLED 3 TIMES, CODE SIZE REDUCTION:5 WORDS
SUBOPT_0xB:
	CALL _lcd_putsf
	LDI  R26,LOW(3000)
	LDI  R27,HIGH(3000)
	JMP  _delay_ms

;OPTIMIZER ADDED SUBROUTINE, CALLED 2 TIMES, CODE SIZE REDUCTION:7 WORDS
SUBOPT_0xC:
	CALL _lcd_clear
	LDI  R30,LOW(1)
	ST   -Y,R30
	LDI  R26,LOW(0)
	CALL _lcd_gotoxy
	__POINTW2FN _0x0,37
	CALL _lcd_putsf
	CLR  R10
	RET

;OPTIMIZER ADDED SUBROUTINE, CALLED 2 TIMES, CODE SIZE REDUCTION:1 WORDS
SUBOPT_0xD:
	CALL __lcd_write_data
	LDI  R26,LOW(3)
	LDI  R27,0
	JMP  _delay_ms

;OPTIMIZER ADDED SUBROUTINE, CALLED 3 TIMES, CODE SIZE REDUCTION:7 WORDS
SUBOPT_0xE:
	LDI  R26,LOW(48)
	CALL __lcd_write_nibble_G100
	__DELAY_USW 200
	RET

;OPTIMIZER ADDED SUBROUTINE, CALLED 3 TIMES, CODE SIZE REDUCTION:3 WORDS
SUBOPT_0xF:
	LD   R30,X+
	LD   R31,X+
	ADIW R30,1
	ST   -X,R31
	ST   -X,R30
	RET

;OPTIMIZER ADDED SUBROUTINE, CALLED 2 TIMES, CODE SIZE REDUCTION:2 WORDS
SUBOPT_0x10:
	ST   -Y,R27
	ST   -Y,R26
	SBIW R28,4
	LDI  R30,LOW(0)
	ST   Y,R30
	STD  Y+1,R30
	RET

;OPTIMIZER ADDED SUBROUTINE, CALLED 4 TIMES, CODE SIZE REDUCTION:33 WORDS
SUBOPT_0x11:
	__GETD2S 4
	__GETD1N 0x41200000
	CALL __MULF12
	__PUTD1S 4
	RET

;OPTIMIZER ADDED SUBROUTINE, CALLED 4 TIMES, CODE SIZE REDUCTION:21 WORDS
SUBOPT_0x12:
	__GETD1S 4
	__GETD2S 12
	CALL __CMPF12
	RET

;OPTIMIZER ADDED SUBROUTINE, CALLED 5 TIMES, CODE SIZE REDUCTION:5 WORDS
SUBOPT_0x13:
	__GETD2S 12
	RET

;OPTIMIZER ADDED SUBROUTINE, CALLED 2 TIMES, CODE SIZE REDUCTION:6 WORDS
SUBOPT_0x14:
	__GETD1N 0x3DCCCCCD
	CALL __MULF12
	__PUTD1S 12
	SUBI R19,-LOW(1)
	RET

;OPTIMIZER ADDED SUBROUTINE, CALLED 3 TIMES, CODE SIZE REDUCTION:5 WORDS
SUBOPT_0x15:
	__GETD1N 0x41200000
	CALL __MULF12
	RET

;OPTIMIZER ADDED SUBROUTINE, CALLED 3 TIMES, CODE SIZE REDUCTION:1 WORDS
SUBOPT_0x16:
	__PUTD1S 12
	RET

;OPTIMIZER ADDED SUBROUTINE, CALLED 3 TIMES, CODE SIZE REDUCTION:5 WORDS
SUBOPT_0x17:
	__GETD2N 0x3F000000
	CALL __ADDF12
	RET

;OPTIMIZER ADDED SUBROUTINE, CALLED 3 TIMES, CODE SIZE REDUCTION:5 WORDS
SUBOPT_0x18:
	__GETD1N 0x3DCCCCCD
	CALL __MULF12
	RET

;OPTIMIZER ADDED SUBROUTINE, CALLED 2 TIMES, CODE SIZE REDUCTION:1 WORDS
SUBOPT_0x19:
	LDD  R26,Y+8
	LDD  R27,Y+8+1
	ADIW R26,1
	STD  Y+8,R26
	STD  Y+8+1,R27
	SBIW R26,1
	RET

;OPTIMIZER ADDED SUBROUTINE, CALLED 3 TIMES, CODE SIZE REDUCTION:1 WORDS
SUBOPT_0x1A:
	MOV  R30,R16
	SUBI R30,-LOW(48)
	ST   X,R30
	MOV  R30,R16
	RET

;OPTIMIZER ADDED SUBROUTINE, CALLED 3 TIMES, CODE SIZE REDUCTION:1 WORDS
SUBOPT_0x1B:
	CALL __SWAPD12
	CALL __SUBF12
	RET

;OPTIMIZER ADDED SUBROUTINE, CALLED 4 TIMES, CODE SIZE REDUCTION:6 WORDS
SUBOPT_0x1C:
	LDD  R30,Y+8
	LDD  R31,Y+8+1
	ADIW R30,1
	STD  Y+8,R30
	STD  Y+8+1,R31
	RET

;OPTIMIZER ADDED SUBROUTINE, CALLED 5 TIMES, CODE SIZE REDUCTION:13 WORDS
SUBOPT_0x1D:
	ST   -Y,R18
	LDD  R26,Y+7
	LDD  R27,Y+7+1
	LDD  R30,Y+9
	LDD  R31,Y+9+1
	ICALL
	RET

;OPTIMIZER ADDED SUBROUTINE, CALLED 8 TIMES, CODE SIZE REDUCTION:25 WORDS
SUBOPT_0x1E:
	__GETW1SX 90
	RET

;OPTIMIZER ADDED SUBROUTINE, CALLED 7 TIMES, CODE SIZE REDUCTION:21 WORDS
SUBOPT_0x1F:
	SBIW R30,4
	__PUTW1SX 90
	RET

;OPTIMIZER ADDED SUBROUTINE, CALLED 4 TIMES, CODE SIZE REDUCTION:6 WORDS
SUBOPT_0x20:
	LDD  R26,Y+7
	LDD  R27,Y+7+1
	LDD  R30,Y+9
	LDD  R31,Y+9+1
	ICALL
	RET

;OPTIMIZER ADDED SUBROUTINE, CALLED 6 TIMES, CODE SIZE REDUCTION:17 WORDS
SUBOPT_0x21:
	__GETW2SX 90
	RET

;OPTIMIZER ADDED SUBROUTINE, CALLED 4 TIMES, CODE SIZE REDUCTION:3 WORDS
SUBOPT_0x22:
	__PUTD1S 10
	RET

;OPTIMIZER ADDED SUBROUTINE, CALLED 6 TIMES, CODE SIZE REDUCTION:7 WORDS
SUBOPT_0x23:
	RCALL SUBOPT_0x1E
	RJMP SUBOPT_0x1F

;OPTIMIZER ADDED SUBROUTINE, CALLED 4 TIMES, CODE SIZE REDUCTION:3 WORDS
SUBOPT_0x24:
	__GETD1S 10
	RET

;OPTIMIZER ADDED SUBROUTINE, CALLED 2 TIMES, CODE SIZE REDUCTION:2 WORDS
SUBOPT_0x25:
	STD  Y+14,R30
	STD  Y+14+1,R31
	LDD  R26,Y+14
	LDD  R27,Y+14+1
	CALL _strlen
	MOV  R17,R30
	RET

;OPTIMIZER ADDED SUBROUTINE, CALLED 4 TIMES, CODE SIZE REDUCTION:6 WORDS
SUBOPT_0x26:
	RCALL SUBOPT_0x21
	ADIW R26,4
	CALL __GETW1P
	RET

;OPTIMIZER ADDED SUBROUTINE, CALLED 5 TIMES, CODE SIZE REDUCTION:5 WORDS
SUBOPT_0x27:
	__PUTD1S 16
	RET

;OPTIMIZER ADDED SUBROUTINE, CALLED 2 TIMES, CODE SIZE REDUCTION:12 WORDS
SUBOPT_0x28:
	ANDI R16,LOW(251)
	LDD  R30,Y+21
	ST   -Y,R30
	__GETW2SX 87
	__GETW1SX 89
	ICALL
	CPI  R21,0
	RET

;OPTIMIZER ADDED SUBROUTINE, CALLED 2 TIMES, CODE SIZE REDUCTION:3 WORDS
SUBOPT_0x29:
	__GETD1S 16
	__GETD2S 10
	RET

;OPTIMIZER ADDED SUBROUTINE, CALLED 2 TIMES, CODE SIZE REDUCTION:1 WORDS
SUBOPT_0x2A:
	MOVW R26,R28
	ADIW R26,12
	CALL __ADDW2R15
	CALL __GETW1P
	RET

;OPTIMIZER ADDED SUBROUTINE, CALLED 3 TIMES, CODE SIZE REDUCTION:1 WORDS
SUBOPT_0x2B:
	LDD  R30,Y+6
	LDD  R31,Y+6+1
	ST   -Y,R31
	ST   -Y,R30
	RET

;OPTIMIZER ADDED SUBROUTINE, CALLED 5 TIMES, CODE SIZE REDUCTION:5 WORDS
SUBOPT_0x2C:
	__PUTD1S 9
	RET

;OPTIMIZER ADDED SUBROUTINE, CALLED 5 TIMES, CODE SIZE REDUCTION:13 WORDS
SUBOPT_0x2D:
	LDD  R26,Y+6
	LDD  R27,Y+6+1
	ADIW R26,1
	STD  Y+6,R26
	STD  Y+6+1,R27
	SBIW R26,1
	RET

;OPTIMIZER ADDED SUBROUTINE, CALLED 4 TIMES, CODE SIZE REDUCTION:3 WORDS
SUBOPT_0x2E:
	__GETD2S 2
	RET

;OPTIMIZER ADDED SUBROUTINE, CALLED 4 TIMES, CODE SIZE REDUCTION:3 WORDS
SUBOPT_0x2F:
	__PUTD1S 2
	RET

;OPTIMIZER ADDED SUBROUTINE, CALLED 3 TIMES, CODE SIZE REDUCTION:9 WORDS
SUBOPT_0x30:
	__GETD1S 2
	__GETD2S 9
	RET

;OPTIMIZER ADDED SUBROUTINE, CALLED 3 TIMES, CODE SIZE REDUCTION:1 WORDS
SUBOPT_0x31:
	__GETD2S 9
	RET


	.CSEG
	.equ __sda_bit=1
	.equ __scl_bit=0
	.equ __i2c_port=0x1B ;PORTA
	.equ __i2c_dir=__i2c_port-1
	.equ __i2c_pin=__i2c_port-2

_i2c_init:
	cbi  __i2c_port,__scl_bit
	cbi  __i2c_port,__sda_bit
	sbi  __i2c_dir,__scl_bit
	cbi  __i2c_dir,__sda_bit
	rjmp __i2c_delay2
_i2c_start:
	cbi  __i2c_dir,__sda_bit
	cbi  __i2c_dir,__scl_bit
	clr  r30
	nop
	sbis __i2c_pin,__sda_bit
	ret
	sbis __i2c_pin,__scl_bit
	ret
	rcall __i2c_delay1
	sbi  __i2c_dir,__sda_bit
	rcall __i2c_delay1
	sbi  __i2c_dir,__scl_bit
	ldi  r30,1
__i2c_delay1:
	ldi  r22,13
	rjmp __i2c_delay2l
_i2c_stop:
	sbi  __i2c_dir,__sda_bit
	sbi  __i2c_dir,__scl_bit
	rcall __i2c_delay2
	cbi  __i2c_dir,__scl_bit
	rcall __i2c_delay1
	cbi  __i2c_dir,__sda_bit
__i2c_delay2:
	ldi  r22,27
__i2c_delay2l:
	dec  r22
	brne __i2c_delay2l
	ret
_i2c_read:
	ldi  r23,8
__i2c_read0:
	cbi  __i2c_dir,__scl_bit
	rcall __i2c_delay1
__i2c_read3:
	sbis __i2c_pin,__scl_bit
	rjmp __i2c_read3
	rcall __i2c_delay1
	clc
	sbic __i2c_pin,__sda_bit
	sec
	sbi  __i2c_dir,__scl_bit
	rcall __i2c_delay2
	rol  r30
	dec  r23
	brne __i2c_read0
	mov  r23,r26
	tst  r23
	brne __i2c_read1
	cbi  __i2c_dir,__sda_bit
	rjmp __i2c_read2
__i2c_read1:
	sbi  __i2c_dir,__sda_bit
__i2c_read2:
	rcall __i2c_delay1
	cbi  __i2c_dir,__scl_bit
	rcall __i2c_delay2
	sbi  __i2c_dir,__scl_bit
	rcall __i2c_delay1
	cbi  __i2c_dir,__sda_bit
	rjmp __i2c_delay1

_i2c_write:
	ldi  r23,8
__i2c_write0:
	lsl  r26
	brcc __i2c_write1
	cbi  __i2c_dir,__sda_bit
	rjmp __i2c_write2
__i2c_write1:
	sbi  __i2c_dir,__sda_bit
__i2c_write2:
	rcall __i2c_delay2
	cbi  __i2c_dir,__scl_bit
	rcall __i2c_delay1
__i2c_write3:
	sbis __i2c_pin,__scl_bit
	rjmp __i2c_write3
	rcall __i2c_delay1
	sbi  __i2c_dir,__scl_bit
	dec  r23
	brne __i2c_write0
	cbi  __i2c_dir,__sda_bit
	rcall __i2c_delay1
	cbi  __i2c_dir,__scl_bit
	rcall __i2c_delay2
	ldi  r30,1
	sbic __i2c_pin,__sda_bit
	clr  r30
	sbi  __i2c_dir,__scl_bit
	rjmp __i2c_delay1

_delay_ms:
	adiw r26,0
	breq __delay_ms1
__delay_ms0:
	wdr
	__DELAY_USW 0x7D0
	sbiw r26,1
	brne __delay_ms0
__delay_ms1:
	ret

__ANEGF1:
	SBIW R30,0
	SBCI R22,0
	SBCI R23,0
	BREQ __ANEGF10
	SUBI R23,0x80
__ANEGF10:
	RET

__ROUND_REPACK:
	TST  R21
	BRPL __REPACK
	CPI  R21,0x80
	BRNE __ROUND_REPACK0
	SBRS R30,0
	RJMP __REPACK
__ROUND_REPACK0:
	ADIW R30,1
	ADC  R22,R25
	ADC  R23,R25
	BRVS __REPACK1

__REPACK:
	LDI  R21,0x80
	EOR  R21,R23
	BRNE __REPACK0
	PUSH R21
	RJMP __ZERORES
__REPACK0:
	CPI  R21,0xFF
	BREQ __REPACK1
	LSL  R22
	LSL  R0
	ROR  R21
	ROR  R22
	MOV  R23,R21
	RET
__REPACK1:
	PUSH R21
	TST  R0
	BRMI __REPACK2
	RJMP __MAXRES
__REPACK2:
	RJMP __MINRES

__UNPACK:
	LDI  R21,0x80
	MOV  R1,R25
	AND  R1,R21
	LSL  R24
	ROL  R25
	EOR  R25,R21
	LSL  R21
	ROR  R24

__UNPACK1:
	LDI  R21,0x80
	MOV  R0,R23
	AND  R0,R21
	LSL  R22
	ROL  R23
	EOR  R23,R21
	LSL  R21
	ROR  R22
	RET

__CFD1U:
	SET
	RJMP __CFD1U0
__CFD1:
	CLT
__CFD1U0:
	PUSH R21
	RCALL __UNPACK1
	CPI  R23,0x80
	BRLO __CFD10
	CPI  R23,0xFF
	BRCC __CFD10
	RJMP __ZERORES
__CFD10:
	LDI  R21,22
	SUB  R21,R23
	BRPL __CFD11
	NEG  R21
	CPI  R21,8
	BRTC __CFD19
	CPI  R21,9
__CFD19:
	BRLO __CFD17
	SER  R30
	SER  R31
	SER  R22
	LDI  R23,0x7F
	BLD  R23,7
	RJMP __CFD15
__CFD17:
	CLR  R23
	TST  R21
	BREQ __CFD15
__CFD18:
	LSL  R30
	ROL  R31
	ROL  R22
	ROL  R23
	DEC  R21
	BRNE __CFD18
	RJMP __CFD15
__CFD11:
	CLR  R23
__CFD12:
	CPI  R21,8
	BRLO __CFD13
	MOV  R30,R31
	MOV  R31,R22
	MOV  R22,R23
	SUBI R21,8
	RJMP __CFD12
__CFD13:
	TST  R21
	BREQ __CFD15
__CFD14:
	LSR  R23
	ROR  R22
	ROR  R31
	ROR  R30
	DEC  R21
	BRNE __CFD14
__CFD15:
	TST  R0
	BRPL __CFD16
	RCALL __ANEGD1
__CFD16:
	POP  R21
	RET

__CDF1U:
	SET
	RJMP __CDF1U0
__CDF1:
	CLT
__CDF1U0:
	SBIW R30,0
	SBCI R22,0
	SBCI R23,0
	BREQ __CDF10
	CLR  R0
	BRTS __CDF11
	TST  R23
	BRPL __CDF11
	COM  R0
	RCALL __ANEGD1
__CDF11:
	MOV  R1,R23
	LDI  R23,30
	TST  R1
__CDF12:
	BRMI __CDF13
	DEC  R23
	LSL  R30
	ROL  R31
	ROL  R22
	ROL  R1
	RJMP __CDF12
__CDF13:
	MOV  R30,R31
	MOV  R31,R22
	MOV  R22,R1
	PUSH R21
	RCALL __REPACK
	POP  R21
__CDF10:
	RET

__SWAPACC:
	PUSH R20
	MOVW R20,R30
	MOVW R30,R26
	MOVW R26,R20
	MOVW R20,R22
	MOVW R22,R24
	MOVW R24,R20
	MOV  R20,R0
	MOV  R0,R1
	MOV  R1,R20
	POP  R20
	RET

__UADD12:
	ADD  R30,R26
	ADC  R31,R27
	ADC  R22,R24
	RET

__NEGMAN1:
	COM  R30
	COM  R31
	COM  R22
	SUBI R30,-1
	SBCI R31,-1
	SBCI R22,-1
	RET

__SUBF12:
	PUSH R21
	RCALL __UNPACK
	CPI  R25,0x80
	BREQ __ADDF129
	LDI  R21,0x80
	EOR  R1,R21

	RJMP __ADDF120

__ADDF12:
	PUSH R21
	RCALL __UNPACK
	CPI  R25,0x80
	BREQ __ADDF129

__ADDF120:
	CPI  R23,0x80
	BREQ __ADDF128
__ADDF121:
	MOV  R21,R23
	SUB  R21,R25
	BRVS __ADDF1211
	BRPL __ADDF122
	RCALL __SWAPACC
	RJMP __ADDF121
__ADDF122:
	CPI  R21,24
	BRLO __ADDF123
	CLR  R26
	CLR  R27
	CLR  R24
__ADDF123:
	CPI  R21,8
	BRLO __ADDF124
	MOV  R26,R27
	MOV  R27,R24
	CLR  R24
	SUBI R21,8
	RJMP __ADDF123
__ADDF124:
	TST  R21
	BREQ __ADDF126
__ADDF125:
	LSR  R24
	ROR  R27
	ROR  R26
	DEC  R21
	BRNE __ADDF125
__ADDF126:
	MOV  R21,R0
	EOR  R21,R1
	BRMI __ADDF127
	RCALL __UADD12
	BRCC __ADDF129
	ROR  R22
	ROR  R31
	ROR  R30
	INC  R23
	BRVC __ADDF129
	RJMP __MAXRES
__ADDF128:
	RCALL __SWAPACC
__ADDF129:
	RCALL __REPACK
	POP  R21
	RET
__ADDF1211:
	BRCC __ADDF128
	RJMP __ADDF129
__ADDF127:
	SUB  R30,R26
	SBC  R31,R27
	SBC  R22,R24
	BREQ __ZERORES
	BRCC __ADDF1210
	COM  R0
	RCALL __NEGMAN1
__ADDF1210:
	TST  R22
	BRMI __ADDF129
	LSL  R30
	ROL  R31
	ROL  R22
	DEC  R23
	BRVC __ADDF1210

__ZERORES:
	CLR  R30
	CLR  R31
	CLR  R22
	CLR  R23
	POP  R21
	RET

__MINRES:
	SER  R30
	SER  R31
	LDI  R22,0x7F
	SER  R23
	POP  R21
	RET

__MAXRES:
	SER  R30
	SER  R31
	LDI  R22,0x7F
	LDI  R23,0x7F
	POP  R21
	RET

__MULF12:
	PUSH R21
	RCALL __UNPACK
	CPI  R23,0x80
	BREQ __ZERORES
	CPI  R25,0x80
	BREQ __ZERORES
	EOR  R0,R1
	SEC
	ADC  R23,R25
	BRVC __MULF124
	BRLT __ZERORES
__MULF125:
	TST  R0
	BRMI __MINRES
	RJMP __MAXRES
__MULF124:
	PUSH R0
	PUSH R17
	PUSH R18
	PUSH R19
	PUSH R20
	CLR  R17
	CLR  R18
	CLR  R25
	MUL  R22,R24
	MOVW R20,R0
	MUL  R24,R31
	MOV  R19,R0
	ADD  R20,R1
	ADC  R21,R25
	MUL  R22,R27
	ADD  R19,R0
	ADC  R20,R1
	ADC  R21,R25
	MUL  R24,R30
	RCALL __MULF126
	MUL  R27,R31
	RCALL __MULF126
	MUL  R22,R26
	RCALL __MULF126
	MUL  R27,R30
	RCALL __MULF127
	MUL  R26,R31
	RCALL __MULF127
	MUL  R26,R30
	ADD  R17,R1
	ADC  R18,R25
	ADC  R19,R25
	ADC  R20,R25
	ADC  R21,R25
	MOV  R30,R19
	MOV  R31,R20
	MOV  R22,R21
	MOV  R21,R18
	POP  R20
	POP  R19
	POP  R18
	POP  R17
	POP  R0
	TST  R22
	BRMI __MULF122
	LSL  R21
	ROL  R30
	ROL  R31
	ROL  R22
	RJMP __MULF123
__MULF122:
	INC  R23
	BRVS __MULF125
__MULF123:
	RCALL __ROUND_REPACK
	POP  R21
	RET

__MULF127:
	ADD  R17,R0
	ADC  R18,R1
	ADC  R19,R25
	RJMP __MULF128
__MULF126:
	ADD  R18,R0
	ADC  R19,R1
__MULF128:
	ADC  R20,R25
	ADC  R21,R25
	RET

__DIVF21:
	PUSH R21
	RCALL __UNPACK
	CPI  R23,0x80
	BRNE __DIVF210
	TST  R1
__DIVF211:
	BRPL __DIVF219
	RJMP __MINRES
__DIVF219:
	RJMP __MAXRES
__DIVF210:
	CPI  R25,0x80
	BRNE __DIVF218
__DIVF217:
	RJMP __ZERORES
__DIVF218:
	EOR  R0,R1
	SEC
	SBC  R25,R23
	BRVC __DIVF216
	BRLT __DIVF217
	TST  R0
	RJMP __DIVF211
__DIVF216:
	MOV  R23,R25
	PUSH R17
	PUSH R18
	PUSH R19
	PUSH R20
	CLR  R1
	CLR  R17
	CLR  R18
	CLR  R19
	CLR  R20
	CLR  R21
	LDI  R25,32
__DIVF212:
	CP   R26,R30
	CPC  R27,R31
	CPC  R24,R22
	CPC  R20,R17
	BRLO __DIVF213
	SUB  R26,R30
	SBC  R27,R31
	SBC  R24,R22
	SBC  R20,R17
	SEC
	RJMP __DIVF214
__DIVF213:
	CLC
__DIVF214:
	ROL  R21
	ROL  R18
	ROL  R19
	ROL  R1
	ROL  R26
	ROL  R27
	ROL  R24
	ROL  R20
	DEC  R25
	BRNE __DIVF212
	MOVW R30,R18
	MOV  R22,R1
	POP  R20
	POP  R19
	POP  R18
	POP  R17
	TST  R22
	BRMI __DIVF215
	LSL  R21
	ROL  R30
	ROL  R31
	ROL  R22
	DEC  R23
	BRVS __DIVF217
__DIVF215:
	RCALL __ROUND_REPACK
	POP  R21
	RET

__CMPF12:
	TST  R25
	BRMI __CMPF120
	TST  R23
	BRMI __CMPF121
	CP   R25,R23
	BRLO __CMPF122
	BRNE __CMPF121
	CP   R26,R30
	CPC  R27,R31
	CPC  R24,R22
	BRLO __CMPF122
	BREQ __CMPF123
__CMPF121:
	CLZ
	CLC
	RET
__CMPF122:
	CLZ
	SEC
	RET
__CMPF123:
	SEZ
	CLC
	RET
__CMPF120:
	TST  R23
	BRPL __CMPF122
	CP   R25,R23
	BRLO __CMPF121
	BRNE __CMPF122
	CP   R30,R26
	CPC  R31,R27
	CPC  R22,R24
	BRLO __CMPF122
	BREQ __CMPF123
	RJMP __CMPF121

__ADDW2R15:
	CLR  R0
	ADD  R26,R15
	ADC  R27,R0
	RET

__ANEGD1:
	COM  R31
	COM  R22
	COM  R23
	NEG  R30
	SBCI R31,-1
	SBCI R22,-1
	SBCI R23,-1
	RET

__CBD1:
	MOV  R31,R30
	ADD  R31,R31
	SBC  R31,R31
	MOV  R22,R31
	MOV  R23,R31
	RET

__CWD1:
	MOV  R22,R31
	ADD  R22,R22
	SBC  R22,R22
	MOV  R23,R22
	RET

__DIVB21U:
	CLR  R0
	LDI  R25,8
__DIVB21U1:
	LSL  R26
	ROL  R0
	SUB  R0,R30
	BRCC __DIVB21U2
	ADD  R0,R30
	RJMP __DIVB21U3
__DIVB21U2:
	SBR  R26,1
__DIVB21U3:
	DEC  R25
	BRNE __DIVB21U1
	MOV  R30,R26
	MOV  R26,R0
	RET

__DIVB21:
	RCALL __CHKSIGNB
	RCALL __DIVB21U
	BRTC __DIVB211
	NEG  R30
__DIVB211:
	RET

__DIVD21U:
	PUSH R19
	PUSH R20
	PUSH R21
	CLR  R0
	CLR  R1
	CLR  R20
	CLR  R21
	LDI  R19,32
__DIVD21U1:
	LSL  R26
	ROL  R27
	ROL  R24
	ROL  R25
	ROL  R0
	ROL  R1
	ROL  R20
	ROL  R21
	SUB  R0,R30
	SBC  R1,R31
	SBC  R20,R22
	SBC  R21,R23
	BRCC __DIVD21U2
	ADD  R0,R30
	ADC  R1,R31
	ADC  R20,R22
	ADC  R21,R23
	RJMP __DIVD21U3
__DIVD21U2:
	SBR  R26,1
__DIVD21U3:
	DEC  R19
	BRNE __DIVD21U1
	MOVW R30,R26
	MOVW R22,R24
	MOVW R26,R0
	MOVW R24,R20
	POP  R21
	POP  R20
	POP  R19
	RET

__MODB21:
	CLT
	SBRS R26,7
	RJMP __MODB211
	NEG  R26
	SET
__MODB211:
	SBRC R30,7
	NEG  R30
	RCALL __DIVB21U
	MOV  R30,R26
	BRTC __MODB212
	NEG  R30
__MODB212:
	RET

__MODD21U:
	RCALL __DIVD21U
	MOVW R30,R26
	MOVW R22,R24
	RET

__CHKSIGNB:
	CLT
	SBRS R30,7
	RJMP __CHKSB1
	NEG  R30
	SET
__CHKSB1:
	SBRS R26,7
	RJMP __CHKSB2
	NEG  R26
	BLD  R0,0
	INC  R0
	BST  R0,0
__CHKSB2:
	RET

__GETW1P:
	LD   R30,X+
	LD   R31,X
	SBIW R26,1
	RET

__GETD1P:
	LD   R30,X+
	LD   R31,X+
	LD   R22,X+
	LD   R23,X
	SBIW R26,3
	RET

__GETD1S0:
	LD   R30,Y
	LDD  R31,Y+1
	LDD  R22,Y+2
	LDD  R23,Y+3
	RET

__GETD2S0:
	LD   R26,Y
	LDD  R27,Y+1
	LDD  R24,Y+2
	LDD  R25,Y+3
	RET

__PUTD1S0:
	ST   Y,R30
	STD  Y+1,R31
	STD  Y+2,R22
	STD  Y+3,R23
	RET

__PUTPARD1:
	ST   -Y,R23
	ST   -Y,R22
	ST   -Y,R31
	ST   -Y,R30
	RET

__PUTPARD2:
	ST   -Y,R25
	ST   -Y,R24
	ST   -Y,R27
	ST   -Y,R26
	RET

__SWAPD12:
	MOV  R1,R24
	MOV  R24,R22
	MOV  R22,R1
	MOV  R1,R25
	MOV  R25,R23
	MOV  R23,R1

__SWAPW12:
	MOV  R1,R27
	MOV  R27,R31
	MOV  R31,R1

__SWAPB12:
	MOV  R1,R26
	MOV  R26,R30
	MOV  R30,R1
	RET

__CPD10:
	SBIW R30,0
	SBCI R22,0
	SBCI R23,0
	RET

__SAVELOCR6:
	ST   -Y,R21
__SAVELOCR5:
	ST   -Y,R20
__SAVELOCR4:
	ST   -Y,R19
__SAVELOCR3:
	ST   -Y,R18
__SAVELOCR2:
	ST   -Y,R17
	ST   -Y,R16
	RET

__LOADLOCR6:
	LDD  R21,Y+5
__LOADLOCR5:
	LDD  R20,Y+4
__LOADLOCR4:
	LDD  R19,Y+3
__LOADLOCR3:
	LDD  R18,Y+2
__LOADLOCR2:
	LDD  R17,Y+1
	LD   R16,Y
	RET

;END OF CODE MARKER
__END_OF_CODE:
