
;CodeVisionAVR C Compiler V3.14 Advanced
;(C) Copyright 1998-2014 Pavel Haiduc, HP InfoTech s.r.l.
;http://www.hpinfotech.com

;Build configuration    : Debug
;Chip type              : ATmega32
;Program type           : Application
;Clock frequency        : 1.000000 MHz
;Memory model           : Small
;Optimize for           : Size
;(s)printf features     : int, width
;(s)scanf features      : int, width
;External RAM size      : 0
;Data Stack size        : 512 byte(s)
;Heap size              : 0 byte(s)
;Promote 'char' to 'int': Yes
;'char' is unsigned     : Yes
;8 bit enums            : Yes
;Global 'const' stored in FLASH: Yes
;Enhanced function parameter passing: Yes
;Enhanced core instructions: On
;Automatic register allocation for global variables: On
;Smart register allocation: On

	#define _MODEL_SMALL_

	#pragma AVRPART ADMIN PART_NAME ATmega32
	#pragma AVRPART MEMORY PROG_FLASH 32768
	#pragma AVRPART MEMORY EEPROM 1024
	#pragma AVRPART MEMORY INT_SRAM SIZE 2048
	#pragma AVRPART MEMORY INT_SRAM START_ADDR 0x60

	#define CALL_SUPPORTED 1

	.LISTMAC
	.EQU UDRE=0x5
	.EQU RXC=0x7
	.EQU USR=0xB
	.EQU UDR=0xC
	.EQU SPSR=0xE
	.EQU SPDR=0xF
	.EQU EERE=0x0
	.EQU EEWE=0x1
	.EQU EEMWE=0x2
	.EQU EECR=0x1C
	.EQU EEDR=0x1D
	.EQU EEARL=0x1E
	.EQU EEARH=0x1F
	.EQU WDTCR=0x21
	.EQU MCUCR=0x35
	.EQU GICR=0x3B
	.EQU SPL=0x3D
	.EQU SPH=0x3E
	.EQU SREG=0x3F

	.DEF R0X0=R0
	.DEF R0X1=R1
	.DEF R0X2=R2
	.DEF R0X3=R3
	.DEF R0X4=R4
	.DEF R0X5=R5
	.DEF R0X6=R6
	.DEF R0X7=R7
	.DEF R0X8=R8
	.DEF R0X9=R9
	.DEF R0XA=R10
	.DEF R0XB=R11
	.DEF R0XC=R12
	.DEF R0XD=R13
	.DEF R0XE=R14
	.DEF R0XF=R15
	.DEF R0X10=R16
	.DEF R0X11=R17
	.DEF R0X12=R18
	.DEF R0X13=R19
	.DEF R0X14=R20
	.DEF R0X15=R21
	.DEF R0X16=R22
	.DEF R0X17=R23
	.DEF R0X18=R24
	.DEF R0X19=R25
	.DEF R0X1A=R26
	.DEF R0X1B=R27
	.DEF R0X1C=R28
	.DEF R0X1D=R29
	.DEF R0X1E=R30
	.DEF R0X1F=R31

	.EQU __SRAM_START=0x0060
	.EQU __SRAM_END=0x085F
	.EQU __DSTACK_SIZE=0x0200
	.EQU __HEAP_SIZE=0x0000
	.EQU __CLEAR_SRAM_SIZE=__SRAM_END-__SRAM_START+1

	.MACRO __CPD1N
	CPI  R30,LOW(@0)
	LDI  R26,HIGH(@0)
	CPC  R31,R26
	LDI  R26,BYTE3(@0)
	CPC  R22,R26
	LDI  R26,BYTE4(@0)
	CPC  R23,R26
	.ENDM

	.MACRO __CPD2N
	CPI  R26,LOW(@0)
	LDI  R30,HIGH(@0)
	CPC  R27,R30
	LDI  R30,BYTE3(@0)
	CPC  R24,R30
	LDI  R30,BYTE4(@0)
	CPC  R25,R30
	.ENDM

	.MACRO __CPWRR
	CP   R@0,R@2
	CPC  R@1,R@3
	.ENDM

	.MACRO __CPWRN
	CPI  R@0,LOW(@2)
	LDI  R30,HIGH(@2)
	CPC  R@1,R30
	.ENDM

	.MACRO __ADDB1MN
	SUBI R30,LOW(-@0-(@1))
	.ENDM

	.MACRO __ADDB2MN
	SUBI R26,LOW(-@0-(@1))
	.ENDM

	.MACRO __ADDW1MN
	SUBI R30,LOW(-@0-(@1))
	SBCI R31,HIGH(-@0-(@1))
	.ENDM

	.MACRO __ADDW2MN
	SUBI R26,LOW(-@0-(@1))
	SBCI R27,HIGH(-@0-(@1))
	.ENDM

	.MACRO __ADDW1FN
	SUBI R30,LOW(-2*@0-(@1))
	SBCI R31,HIGH(-2*@0-(@1))
	.ENDM

	.MACRO __ADDD1FN
	SUBI R30,LOW(-2*@0-(@1))
	SBCI R31,HIGH(-2*@0-(@1))
	SBCI R22,BYTE3(-2*@0-(@1))
	.ENDM

	.MACRO __ADDD1N
	SUBI R30,LOW(-@0)
	SBCI R31,HIGH(-@0)
	SBCI R22,BYTE3(-@0)
	SBCI R23,BYTE4(-@0)
	.ENDM

	.MACRO __ADDD2N
	SUBI R26,LOW(-@0)
	SBCI R27,HIGH(-@0)
	SBCI R24,BYTE3(-@0)
	SBCI R25,BYTE4(-@0)
	.ENDM

	.MACRO __SUBD1N
	SUBI R30,LOW(@0)
	SBCI R31,HIGH(@0)
	SBCI R22,BYTE3(@0)
	SBCI R23,BYTE4(@0)
	.ENDM

	.MACRO __SUBD2N
	SUBI R26,LOW(@0)
	SBCI R27,HIGH(@0)
	SBCI R24,BYTE3(@0)
	SBCI R25,BYTE4(@0)
	.ENDM

	.MACRO __ANDBMNN
	LDS  R30,@0+(@1)
	ANDI R30,LOW(@2)
	STS  @0+(@1),R30
	.ENDM

	.MACRO __ANDWMNN
	LDS  R30,@0+(@1)
	ANDI R30,LOW(@2)
	STS  @0+(@1),R30
	LDS  R30,@0+(@1)+1
	ANDI R30,HIGH(@2)
	STS  @0+(@1)+1,R30
	.ENDM

	.MACRO __ANDD1N
	ANDI R30,LOW(@0)
	ANDI R31,HIGH(@0)
	ANDI R22,BYTE3(@0)
	ANDI R23,BYTE4(@0)
	.ENDM

	.MACRO __ANDD2N
	ANDI R26,LOW(@0)
	ANDI R27,HIGH(@0)
	ANDI R24,BYTE3(@0)
	ANDI R25,BYTE4(@0)
	.ENDM

	.MACRO __ORBMNN
	LDS  R30,@0+(@1)
	ORI  R30,LOW(@2)
	STS  @0+(@1),R30
	.ENDM

	.MACRO __ORWMNN
	LDS  R30,@0+(@1)
	ORI  R30,LOW(@2)
	STS  @0+(@1),R30
	LDS  R30,@0+(@1)+1
	ORI  R30,HIGH(@2)
	STS  @0+(@1)+1,R30
	.ENDM

	.MACRO __ORD1N
	ORI  R30,LOW(@0)
	ORI  R31,HIGH(@0)
	ORI  R22,BYTE3(@0)
	ORI  R23,BYTE4(@0)
	.ENDM

	.MACRO __ORD2N
	ORI  R26,LOW(@0)
	ORI  R27,HIGH(@0)
	ORI  R24,BYTE3(@0)
	ORI  R25,BYTE4(@0)
	.ENDM

	.MACRO __DELAY_USB
	LDI  R24,LOW(@0)
__DELAY_USB_LOOP:
	DEC  R24
	BRNE __DELAY_USB_LOOP
	.ENDM

	.MACRO __DELAY_USW
	LDI  R24,LOW(@0)
	LDI  R25,HIGH(@0)
__DELAY_USW_LOOP:
	SBIW R24,1
	BRNE __DELAY_USW_LOOP
	.ENDM

	.MACRO __GETD1S
	LDD  R30,Y+@0
	LDD  R31,Y+@0+1
	LDD  R22,Y+@0+2
	LDD  R23,Y+@0+3
	.ENDM

	.MACRO __GETD2S
	LDD  R26,Y+@0
	LDD  R27,Y+@0+1
	LDD  R24,Y+@0+2
	LDD  R25,Y+@0+3
	.ENDM

	.MACRO __PUTD1S
	STD  Y+@0,R30
	STD  Y+@0+1,R31
	STD  Y+@0+2,R22
	STD  Y+@0+3,R23
	.ENDM

	.MACRO __PUTD2S
	STD  Y+@0,R26
	STD  Y+@0+1,R27
	STD  Y+@0+2,R24
	STD  Y+@0+3,R25
	.ENDM

	.MACRO __PUTDZ2
	STD  Z+@0,R26
	STD  Z+@0+1,R27
	STD  Z+@0+2,R24
	STD  Z+@0+3,R25
	.ENDM

	.MACRO __CLRD1S
	STD  Y+@0,R30
	STD  Y+@0+1,R30
	STD  Y+@0+2,R30
	STD  Y+@0+3,R30
	.ENDM

	.MACRO __POINTB1MN
	LDI  R30,LOW(@0+(@1))
	.ENDM

	.MACRO __POINTW1MN
	LDI  R30,LOW(@0+(@1))
	LDI  R31,HIGH(@0+(@1))
	.ENDM

	.MACRO __POINTD1M
	LDI  R30,LOW(@0)
	LDI  R31,HIGH(@0)
	LDI  R22,BYTE3(@0)
	LDI  R23,BYTE4(@0)
	.ENDM

	.MACRO __POINTW1FN
	LDI  R30,LOW(2*@0+(@1))
	LDI  R31,HIGH(2*@0+(@1))
	.ENDM

	.MACRO __POINTD1FN
	LDI  R30,LOW(2*@0+(@1))
	LDI  R31,HIGH(2*@0+(@1))
	LDI  R22,BYTE3(2*@0+(@1))
	LDI  R23,BYTE4(2*@0+(@1))
	.ENDM

	.MACRO __POINTB2MN
	LDI  R26,LOW(@0+(@1))
	.ENDM

	.MACRO __POINTW2MN
	LDI  R26,LOW(@0+(@1))
	LDI  R27,HIGH(@0+(@1))
	.ENDM

	.MACRO __POINTW2FN
	LDI  R26,LOW(2*@0+(@1))
	LDI  R27,HIGH(2*@0+(@1))
	.ENDM

	.MACRO __POINTD2FN
	LDI  R26,LOW(2*@0+(@1))
	LDI  R27,HIGH(2*@0+(@1))
	LDI  R24,BYTE3(2*@0+(@1))
	LDI  R25,BYTE4(2*@0+(@1))
	.ENDM

	.MACRO __POINTBRM
	LDI  R@0,LOW(@1)
	.ENDM

	.MACRO __POINTWRM
	LDI  R@0,LOW(@2)
	LDI  R@1,HIGH(@2)
	.ENDM

	.MACRO __POINTBRMN
	LDI  R@0,LOW(@1+(@2))
	.ENDM

	.MACRO __POINTWRMN
	LDI  R@0,LOW(@2+(@3))
	LDI  R@1,HIGH(@2+(@3))
	.ENDM

	.MACRO __POINTWRFN
	LDI  R@0,LOW(@2*2+(@3))
	LDI  R@1,HIGH(@2*2+(@3))
	.ENDM

	.MACRO __GETD1N
	LDI  R30,LOW(@0)
	LDI  R31,HIGH(@0)
	LDI  R22,BYTE3(@0)
	LDI  R23,BYTE4(@0)
	.ENDM

	.MACRO __GETD2N
	LDI  R26,LOW(@0)
	LDI  R27,HIGH(@0)
	LDI  R24,BYTE3(@0)
	LDI  R25,BYTE4(@0)
	.ENDM

	.MACRO __GETB1MN
	LDS  R30,@0+(@1)
	.ENDM

	.MACRO __GETB1HMN
	LDS  R31,@0+(@1)
	.ENDM

	.MACRO __GETW1MN
	LDS  R30,@0+(@1)
	LDS  R31,@0+(@1)+1
	.ENDM

	.MACRO __GETD1MN
	LDS  R30,@0+(@1)
	LDS  R31,@0+(@1)+1
	LDS  R22,@0+(@1)+2
	LDS  R23,@0+(@1)+3
	.ENDM

	.MACRO __GETBRMN
	LDS  R@0,@1+(@2)
	.ENDM

	.MACRO __GETWRMN
	LDS  R@0,@2+(@3)
	LDS  R@1,@2+(@3)+1
	.ENDM

	.MACRO __GETWRZ
	LDD  R@0,Z+@2
	LDD  R@1,Z+@2+1
	.ENDM

	.MACRO __GETD2Z
	LDD  R26,Z+@0
	LDD  R27,Z+@0+1
	LDD  R24,Z+@0+2
	LDD  R25,Z+@0+3
	.ENDM

	.MACRO __GETB2MN
	LDS  R26,@0+(@1)
	.ENDM

	.MACRO __GETW2MN
	LDS  R26,@0+(@1)
	LDS  R27,@0+(@1)+1
	.ENDM

	.MACRO __GETD2MN
	LDS  R26,@0+(@1)
	LDS  R27,@0+(@1)+1
	LDS  R24,@0+(@1)+2
	LDS  R25,@0+(@1)+3
	.ENDM

	.MACRO __PUTB1MN
	STS  @0+(@1),R30
	.ENDM

	.MACRO __PUTW1MN
	STS  @0+(@1),R30
	STS  @0+(@1)+1,R31
	.ENDM

	.MACRO __PUTD1MN
	STS  @0+(@1),R30
	STS  @0+(@1)+1,R31
	STS  @0+(@1)+2,R22
	STS  @0+(@1)+3,R23
	.ENDM

	.MACRO __PUTB1EN
	LDI  R26,LOW(@0+(@1))
	LDI  R27,HIGH(@0+(@1))
	CALL __EEPROMWRB
	.ENDM

	.MACRO __PUTW1EN
	LDI  R26,LOW(@0+(@1))
	LDI  R27,HIGH(@0+(@1))
	CALL __EEPROMWRW
	.ENDM

	.MACRO __PUTD1EN
	LDI  R26,LOW(@0+(@1))
	LDI  R27,HIGH(@0+(@1))
	CALL __EEPROMWRD
	.ENDM

	.MACRO __PUTBR0MN
	STS  @0+(@1),R0
	.ENDM

	.MACRO __PUTBMRN
	STS  @0+(@1),R@2
	.ENDM

	.MACRO __PUTWMRN
	STS  @0+(@1),R@2
	STS  @0+(@1)+1,R@3
	.ENDM

	.MACRO __PUTBZR
	STD  Z+@1,R@0
	.ENDM

	.MACRO __PUTWZR
	STD  Z+@2,R@0
	STD  Z+@2+1,R@1
	.ENDM

	.MACRO __GETW1R
	MOV  R30,R@0
	MOV  R31,R@1
	.ENDM

	.MACRO __GETW2R
	MOV  R26,R@0
	MOV  R27,R@1
	.ENDM

	.MACRO __GETWRN
	LDI  R@0,LOW(@2)
	LDI  R@1,HIGH(@2)
	.ENDM

	.MACRO __PUTW1R
	MOV  R@0,R30
	MOV  R@1,R31
	.ENDM

	.MACRO __PUTW2R
	MOV  R@0,R26
	MOV  R@1,R27
	.ENDM

	.MACRO __ADDWRN
	SUBI R@0,LOW(-@2)
	SBCI R@1,HIGH(-@2)
	.ENDM

	.MACRO __ADDWRR
	ADD  R@0,R@2
	ADC  R@1,R@3
	.ENDM

	.MACRO __SUBWRN
	SUBI R@0,LOW(@2)
	SBCI R@1,HIGH(@2)
	.ENDM

	.MACRO __SUBWRR
	SUB  R@0,R@2
	SBC  R@1,R@3
	.ENDM

	.MACRO __ANDWRN
	ANDI R@0,LOW(@2)
	ANDI R@1,HIGH(@2)
	.ENDM

	.MACRO __ANDWRR
	AND  R@0,R@2
	AND  R@1,R@3
	.ENDM

	.MACRO __ORWRN
	ORI  R@0,LOW(@2)
	ORI  R@1,HIGH(@2)
	.ENDM

	.MACRO __ORWRR
	OR   R@0,R@2
	OR   R@1,R@3
	.ENDM

	.MACRO __EORWRR
	EOR  R@0,R@2
	EOR  R@1,R@3
	.ENDM

	.MACRO __GETWRS
	LDD  R@0,Y+@2
	LDD  R@1,Y+@2+1
	.ENDM

	.MACRO __PUTBSR
	STD  Y+@1,R@0
	.ENDM

	.MACRO __PUTWSR
	STD  Y+@2,R@0
	STD  Y+@2+1,R@1
	.ENDM

	.MACRO __MOVEWRR
	MOV  R@0,R@2
	MOV  R@1,R@3
	.ENDM

	.MACRO __INWR
	IN   R@0,@2
	IN   R@1,@2+1
	.ENDM

	.MACRO __OUTWR
	OUT  @2+1,R@1
	OUT  @2,R@0
	.ENDM

	.MACRO __CALL1MN
	LDS  R30,@0+(@1)
	LDS  R31,@0+(@1)+1
	ICALL
	.ENDM

	.MACRO __CALL1FN
	LDI  R30,LOW(2*@0+(@1))
	LDI  R31,HIGH(2*@0+(@1))
	CALL __GETW1PF
	ICALL
	.ENDM

	.MACRO __CALL2EN
	PUSH R26
	PUSH R27
	LDI  R26,LOW(@0+(@1))
	LDI  R27,HIGH(@0+(@1))
	CALL __EEPROMRDW
	POP  R27
	POP  R26
	ICALL
	.ENDM

	.MACRO __CALL2EX
	SUBI R26,LOW(-@0)
	SBCI R27,HIGH(-@0)
	CALL __EEPROMRDD
	ICALL
	.ENDM

	.MACRO __GETW1STACK
	IN   R30,SPL
	IN   R31,SPH
	ADIW R30,@0+1
	LD   R0,Z+
	LD   R31,Z
	MOV  R30,R0
	.ENDM

	.MACRO __GETD1STACK
	IN   R30,SPL
	IN   R31,SPH
	ADIW R30,@0+1
	LD   R0,Z+
	LD   R1,Z+
	LD   R22,Z
	MOVW R30,R0
	.ENDM

	.MACRO __NBST
	BST  R@0,@1
	IN   R30,SREG
	LDI  R31,0x40
	EOR  R30,R31
	OUT  SREG,R30
	.ENDM


	.MACRO __PUTB1SN
	LDD  R26,Y+@0
	LDD  R27,Y+@0+1
	SUBI R26,LOW(-@1)
	SBCI R27,HIGH(-@1)
	ST   X,R30
	.ENDM

	.MACRO __PUTW1SN
	LDD  R26,Y+@0
	LDD  R27,Y+@0+1
	SUBI R26,LOW(-@1)
	SBCI R27,HIGH(-@1)
	ST   X+,R30
	ST   X,R31
	.ENDM

	.MACRO __PUTD1SN
	LDD  R26,Y+@0
	LDD  R27,Y+@0+1
	SUBI R26,LOW(-@1)
	SBCI R27,HIGH(-@1)
	CALL __PUTDP1
	.ENDM

	.MACRO __PUTB1SNS
	LDD  R26,Y+@0
	LDD  R27,Y+@0+1
	ADIW R26,@1
	ST   X,R30
	.ENDM

	.MACRO __PUTW1SNS
	LDD  R26,Y+@0
	LDD  R27,Y+@0+1
	ADIW R26,@1
	ST   X+,R30
	ST   X,R31
	.ENDM

	.MACRO __PUTD1SNS
	LDD  R26,Y+@0
	LDD  R27,Y+@0+1
	ADIW R26,@1
	CALL __PUTDP1
	.ENDM

	.MACRO __PUTB1PMN
	LDS  R26,@0
	LDS  R27,@0+1
	SUBI R26,LOW(-@1)
	SBCI R27,HIGH(-@1)
	ST   X,R30
	.ENDM

	.MACRO __PUTW1PMN
	LDS  R26,@0
	LDS  R27,@0+1
	SUBI R26,LOW(-@1)
	SBCI R27,HIGH(-@1)
	ST   X+,R30
	ST   X,R31
	.ENDM

	.MACRO __PUTD1PMN
	LDS  R26,@0
	LDS  R27,@0+1
	SUBI R26,LOW(-@1)
	SBCI R27,HIGH(-@1)
	CALL __PUTDP1
	.ENDM

	.MACRO __PUTB1PMNS
	LDS  R26,@0
	LDS  R27,@0+1
	ADIW R26,@1
	ST   X,R30
	.ENDM

	.MACRO __PUTW1PMNS
	LDS  R26,@0
	LDS  R27,@0+1
	ADIW R26,@1
	ST   X+,R30
	ST   X,R31
	.ENDM

	.MACRO __PUTD1PMNS
	LDS  R26,@0
	LDS  R27,@0+1
	ADIW R26,@1
	CALL __PUTDP1
	.ENDM

	.MACRO __PUTB1RN
	MOVW R26,R@0
	SUBI R26,LOW(-@1)
	SBCI R27,HIGH(-@1)
	ST   X,R30
	.ENDM

	.MACRO __PUTW1RN
	MOVW R26,R@0
	SUBI R26,LOW(-@1)
	SBCI R27,HIGH(-@1)
	ST   X+,R30
	ST   X,R31
	.ENDM

	.MACRO __PUTD1RN
	MOVW R26,R@0
	SUBI R26,LOW(-@1)
	SBCI R27,HIGH(-@1)
	CALL __PUTDP1
	.ENDM

	.MACRO __PUTB1RNS
	MOVW R26,R@0
	ADIW R26,@1
	ST   X,R30
	.ENDM

	.MACRO __PUTW1RNS
	MOVW R26,R@0
	ADIW R26,@1
	ST   X+,R30
	ST   X,R31
	.ENDM

	.MACRO __PUTD1RNS
	MOVW R26,R@0
	ADIW R26,@1
	CALL __PUTDP1
	.ENDM

	.MACRO __PUTB1RON
	MOV  R26,R@0
	MOV  R27,R@1
	SUBI R26,LOW(-@2)
	SBCI R27,HIGH(-@2)
	ST   X,R30
	.ENDM

	.MACRO __PUTW1RON
	MOV  R26,R@0
	MOV  R27,R@1
	SUBI R26,LOW(-@2)
	SBCI R27,HIGH(-@2)
	ST   X+,R30
	ST   X,R31
	.ENDM

	.MACRO __PUTD1RON
	MOV  R26,R@0
	MOV  R27,R@1
	SUBI R26,LOW(-@2)
	SBCI R27,HIGH(-@2)
	CALL __PUTDP1
	.ENDM

	.MACRO __PUTB1RONS
	MOV  R26,R@0
	MOV  R27,R@1
	ADIW R26,@2
	ST   X,R30
	.ENDM

	.MACRO __PUTW1RONS
	MOV  R26,R@0
	MOV  R27,R@1
	ADIW R26,@2
	ST   X+,R30
	ST   X,R31
	.ENDM

	.MACRO __PUTD1RONS
	MOV  R26,R@0
	MOV  R27,R@1
	ADIW R26,@2
	CALL __PUTDP1
	.ENDM


	.MACRO __GETB1SX
	MOVW R30,R28
	SUBI R30,LOW(-@0)
	SBCI R31,HIGH(-@0)
	LD   R30,Z
	.ENDM

	.MACRO __GETB1HSX
	MOVW R30,R28
	SUBI R30,LOW(-@0)
	SBCI R31,HIGH(-@0)
	LD   R31,Z
	.ENDM

	.MACRO __GETW1SX
	MOVW R30,R28
	SUBI R30,LOW(-@0)
	SBCI R31,HIGH(-@0)
	LD   R0,Z+
	LD   R31,Z
	MOV  R30,R0
	.ENDM

	.MACRO __GETD1SX
	MOVW R30,R28
	SUBI R30,LOW(-@0)
	SBCI R31,HIGH(-@0)
	LD   R0,Z+
	LD   R1,Z+
	LD   R22,Z+
	LD   R23,Z
	MOVW R30,R0
	.ENDM

	.MACRO __GETB2SX
	MOVW R26,R28
	SUBI R26,LOW(-@0)
	SBCI R27,HIGH(-@0)
	LD   R26,X
	.ENDM

	.MACRO __GETW2SX
	MOVW R26,R28
	SUBI R26,LOW(-@0)
	SBCI R27,HIGH(-@0)
	LD   R0,X+
	LD   R27,X
	MOV  R26,R0
	.ENDM

	.MACRO __GETD2SX
	MOVW R26,R28
	SUBI R26,LOW(-@0)
	SBCI R27,HIGH(-@0)
	LD   R0,X+
	LD   R1,X+
	LD   R24,X+
	LD   R25,X
	MOVW R26,R0
	.ENDM

	.MACRO __GETBRSX
	MOVW R30,R28
	SUBI R30,LOW(-@1)
	SBCI R31,HIGH(-@1)
	LD   R@0,Z
	.ENDM

	.MACRO __GETWRSX
	MOVW R30,R28
	SUBI R30,LOW(-@2)
	SBCI R31,HIGH(-@2)
	LD   R@0,Z+
	LD   R@1,Z
	.ENDM

	.MACRO __GETBRSX2
	MOVW R26,R28
	SUBI R26,LOW(-@1)
	SBCI R27,HIGH(-@1)
	LD   R@0,X
	.ENDM

	.MACRO __GETWRSX2
	MOVW R26,R28
	SUBI R26,LOW(-@2)
	SBCI R27,HIGH(-@2)
	LD   R@0,X+
	LD   R@1,X
	.ENDM

	.MACRO __LSLW8SX
	MOVW R30,R28
	SUBI R30,LOW(-@0)
	SBCI R31,HIGH(-@0)
	LD   R31,Z
	CLR  R30
	.ENDM

	.MACRO __PUTB1SX
	MOVW R26,R28
	SUBI R26,LOW(-@0)
	SBCI R27,HIGH(-@0)
	ST   X,R30
	.ENDM

	.MACRO __PUTW1SX
	MOVW R26,R28
	SUBI R26,LOW(-@0)
	SBCI R27,HIGH(-@0)
	ST   X+,R30
	ST   X,R31
	.ENDM

	.MACRO __PUTD1SX
	MOVW R26,R28
	SUBI R26,LOW(-@0)
	SBCI R27,HIGH(-@0)
	ST   X+,R30
	ST   X+,R31
	ST   X+,R22
	ST   X,R23
	.ENDM

	.MACRO __CLRW1SX
	MOVW R26,R28
	SUBI R26,LOW(-@0)
	SBCI R27,HIGH(-@0)
	ST   X+,R30
	ST   X,R30
	.ENDM

	.MACRO __CLRD1SX
	MOVW R26,R28
	SUBI R26,LOW(-@0)
	SBCI R27,HIGH(-@0)
	ST   X+,R30
	ST   X+,R30
	ST   X+,R30
	ST   X,R30
	.ENDM

	.MACRO __PUTB2SX
	MOVW R30,R28
	SUBI R30,LOW(-@0)
	SBCI R31,HIGH(-@0)
	ST   Z,R26
	.ENDM

	.MACRO __PUTW2SX
	MOVW R30,R28
	SUBI R30,LOW(-@0)
	SBCI R31,HIGH(-@0)
	ST   Z+,R26
	ST   Z,R27
	.ENDM

	.MACRO __PUTD2SX
	MOVW R30,R28
	SUBI R30,LOW(-@0)
	SBCI R31,HIGH(-@0)
	ST   Z+,R26
	ST   Z+,R27
	ST   Z+,R24
	ST   Z,R25
	.ENDM

	.MACRO __PUTBSRX
	MOVW R30,R28
	SUBI R30,LOW(-@1)
	SBCI R31,HIGH(-@1)
	ST   Z,R@0
	.ENDM

	.MACRO __PUTWSRX
	MOVW R30,R28
	SUBI R30,LOW(-@2)
	SBCI R31,HIGH(-@2)
	ST   Z+,R@0
	ST   Z,R@1
	.ENDM

	.MACRO __PUTB1SNX
	MOVW R26,R28
	SUBI R26,LOW(-@0)
	SBCI R27,HIGH(-@0)
	LD   R0,X+
	LD   R27,X
	MOV  R26,R0
	SUBI R26,LOW(-@1)
	SBCI R27,HIGH(-@1)
	ST   X,R30
	.ENDM

	.MACRO __PUTW1SNX
	MOVW R26,R28
	SUBI R26,LOW(-@0)
	SBCI R27,HIGH(-@0)
	LD   R0,X+
	LD   R27,X
	MOV  R26,R0
	SUBI R26,LOW(-@1)
	SBCI R27,HIGH(-@1)
	ST   X+,R30
	ST   X,R31
	.ENDM

	.MACRO __PUTD1SNX
	MOVW R26,R28
	SUBI R26,LOW(-@0)
	SBCI R27,HIGH(-@0)
	LD   R0,X+
	LD   R27,X
	MOV  R26,R0
	SUBI R26,LOW(-@1)
	SBCI R27,HIGH(-@1)
	ST   X+,R30
	ST   X+,R31
	ST   X+,R22
	ST   X,R23
	.ENDM

	.MACRO __MULBRR
	MULS R@0,R@1
	MOVW R30,R0
	.ENDM

	.MACRO __MULBRRU
	MUL  R@0,R@1
	MOVW R30,R0
	.ENDM

	.MACRO __MULBRR0
	MULS R@0,R@1
	.ENDM

	.MACRO __MULBRRU0
	MUL  R@0,R@1
	.ENDM

	.MACRO __MULBNWRU
	LDI  R26,@2
	MUL  R26,R@0
	MOVW R30,R0
	MUL  R26,R@1
	ADD  R31,R0
	.ENDM

	.CSEG
	.ORG 0x00

;START OF CODE MARKER
__START_OF_CODE:

;INTERRUPT VECTORS
	JMP  __RESET
	JMP  0x00
	JMP  0x00
	JMP  0x00
	JMP  0x00
	JMP  0x00
	JMP  0x00
	JMP  0x00
	JMP  0x00
	JMP  0x00
	JMP  0x00
	JMP  _timer0_ovf_isr
	JMP  0x00
	JMP  0x00
	JMP  0x00
	JMP  0x00
	JMP  0x00
	JMP  0x00
	JMP  0x00
	JMP  0x00
	JMP  0x00

_font:
	.DB  0x0,0x0,0x0,0x0,0x0,0x0,0x0,0x0
	.DB  0x0,0x0,0x0,0x0,0x0,0x0,0x0,0x0
	.DB  0x0,0x0,0x0,0x0,0x0,0x0,0x0,0x0
	.DB  0x0,0x0,0x0,0x0,0x0,0x0,0x0,0x0
	.DB  0x0,0x0,0x0,0x0,0x0,0x0,0x0,0x0
	.DB  0x0,0x0,0x0,0x0,0x0,0x0,0x0,0x0
	.DB  0x0,0x0,0x0,0x0,0x0,0x0,0x0,0x0
	.DB  0x0,0x0,0x0,0x0,0x0,0x0,0x0,0x0
	.DB  0x0,0x0,0x0,0x0,0x0,0x0,0x0,0x0
	.DB  0x0,0x0,0x0,0x0,0x0,0x0,0x0,0x0
	.DB  0x0,0x0,0x0,0x0,0x0,0x0,0x0,0x0
	.DB  0x0,0x0,0x0,0x0,0x0,0x0,0x0,0x0
	.DB  0x0,0x0,0x0,0x0,0x0,0x0,0x0,0x0
	.DB  0x0,0x0,0x0,0x0,0x0,0x0,0x0,0x0
	.DB  0x0,0x0,0x0,0x0,0x0,0x0,0x0,0x0
	.DB  0x0,0x0,0x0,0x0,0x0,0x0,0x0,0x0
	.DB  0x20,0x20,0x28,0x28,0x68,0xB0,0x60,0x20
	.DB  0x20,0x20,0x28,0x2A,0x28,0x30,0x20,0x20
	.DB  0x0,0x80,0x80,0x44,0x32,0x24,0x20,0x20
	.DB  0x0,0x24,0x24,0x24,0x38,0x20,0x20,0x20
	.DB  0x20,0x20,0x20,0x20,0x24,0x2A,0x11,0x0
	.DB  0x20,0x20,0x20,0x24,0x2A,0x11,0x20,0x20
	.DB  0x30,0x20,0x20,0x20,0x24,0x2A,0x11,0x20
	.DB  0x20,0x20,0x30,0x20,0x30,0x28,0x28,0x18
	.DB  0x20,0x24,0x22,0x21,0x24,0x2A,0x11,0x0
	.DB  0x24,0x22,0x21,0x24,0x2A,0x11,0x20,0x20
	.DB  0x30,0x24,0x22,0x21,0x24,0x2A,0x11,0x20
	.DB  0x0,0x80,0x80,0x40,0x30,0x20,0x20,0x20
	.DB  0x20,0x20,0x20,0x60,0xA0,0x60,0x28,0x30
	.DB  0x20,0x20,0x20,0x60,0xB0,0x60,0x20,0x20
	.DB  0x0,0x30,0x28,0x60,0xA0,0x60,0x30,0x20
	.DB  0x0,0x4,0x6,0x1D,0x25,0x24,0x20,0x20
	.DB  0x0,0x0,0x0,0x0,0x0,0x0,0x0,0x0
	.DB  0x0,0x0,0x4F,0x0,0x0,0x0,0x0,0x0
	.DB  0x0,0x7,0x0,0x7,0x0,0x0,0x0,0x0
	.DB  0x0,0x14,0x7F,0x14,0x7F,0x14,0x0,0x0
	.DB  0x0,0x24,0x2A,0x7F,0x2A,0x12,0x0,0x0
	.DB  0x0,0x23,0x13,0x8,0x64,0x62,0x0,0x0
	.DB  0x0,0x36,0x49,0x55,0x22,0x40,0x0,0x0
	.DB  0x0,0x0,0x5,0x3,0x0,0x0,0x0,0x0
	.DB  0x0,0x1C,0x22,0x41,0x0,0x0,0x0,0x0
	.DB  0x0,0x41,0x22,0x1C,0x0,0x0,0x0,0x0
	.DB  0x0,0x14,0x8,0x3E,0x8,0x14,0x0,0x0
	.DB  0x0,0x8,0x8,0x3E,0x8,0x8,0x0,0x0
	.DB  0x0,0x0,0x28,0x18,0x0,0x0,0x0,0x0
	.DB  0x0,0x8,0x8,0x8,0x8,0x8,0x8,0x0
	.DB  0x0,0x30,0x30,0x0,0x0,0x0,0x0,0x0
	.DB  0x0,0x20,0x10,0x8,0x4,0x2,0x0,0x0
	.DB  0x0,0x3E,0x51,0x49,0x45,0x3E,0x0,0x0
	.DB  0x0,0x0,0x42,0x7F,0x40,0x0,0x0,0x0
	.DB  0x0,0x42,0x61,0x51,0x49,0x46,0x0,0x0
	.DB  0x0,0x21,0x41,0x45,0x4B,0x31,0x0,0x0
	.DB  0x0,0x18,0x14,0x12,0x7F,0x10,0x0,0x0
	.DB  0x0,0x0,0x27,0x45,0x45,0x45,0x39,0x0
	.DB  0x0,0x3C,0x4A,0x49,0x49,0x30,0x0,0x0
	.DB  0x0,0x1,0x71,0x9,0x5,0x3,0x0,0x0
	.DB  0x0,0x36,0x49,0x49,0x49,0x36,0x0,0x0
	.DB  0x0,0x6,0x49,0x49,0x29,0x1E,0x0,0x0
	.DB  0x0,0x0,0x36,0x36,0x0,0x0,0x0,0x0
	.DB  0x0,0x0,0x56,0x36,0x0,0x0,0x0,0x0
	.DB  0x0,0x8,0x14,0x22,0x41,0x0,0x0,0x0
	.DB  0x0,0x24,0x24,0x24,0x24,0x24,0x0,0x0
	.DB  0x0,0x0,0x41,0x22,0x14,0x8,0x0,0x0
	.DB  0x0,0x2,0x1,0x51,0x9,0x6,0x0,0x0
	.DB  0x0,0x32,0x49,0x79,0x41,0x3E,0x0,0x0
	.DB  0x0,0x7E,0x11,0x11,0x11,0x7E,0x0,0x0
	.DB  0x0,0x7F,0x49,0x49,0x49,0x36,0x0,0x0
	.DB  0x0,0x3E,0x41,0x41,0x41,0x22,0x0,0x0
	.DB  0x0,0x7F,0x41,0x41,0x22,0x1C,0x0,0x0
	.DB  0x0,0x7F,0x49,0x49,0x49,0x41,0x0,0x0
	.DB  0x0,0x7F,0x9,0x9,0x9,0x1,0x0,0x0
	.DB  0x0,0x3E,0x41,0x49,0x49,0x3A,0x0,0x0
	.DB  0x0,0x7F,0x8,0x8,0x8,0x7F,0x0,0x0
	.DB  0x0,0x0,0x41,0x7F,0x41,0x0,0x0,0x0
	.DB  0x0,0x20,0x40,0x41,0x3F,0x1,0x0,0x0
	.DB  0x0,0x7F,0x8,0x14,0x22,0x41,0x0,0x0
	.DB  0x0,0x7F,0x40,0x40,0x40,0x40,0x0,0x0
	.DB  0x0,0x7F,0x2,0xC,0x2,0x7F,0x0,0x0
	.DB  0x0,0x7F,0x4,0x8,0x10,0x7F,0x0,0x0
	.DB  0x0,0x3E,0x41,0x41,0x41,0x3E,0x0,0x0
	.DB  0x0,0x7F,0x9,0x9,0x9,0x6,0x0,0x0
	.DB  0x3E,0x41,0x51,0x21,0x5E,0x0,0x0,0x0
	.DB  0x0,0x7F,0x9,0x19,0x29,0x46,0x0,0x0
	.DB  0x0,0x46,0x49,0x49,0x49,0x31,0x0,0x0
	.DB  0x0,0x1,0x1,0x7F,0x1,0x1,0x0,0x0
	.DB  0x0,0x3F,0x40,0x40,0x40,0x3F,0x0,0x0
	.DB  0x0,0x1F,0x20,0x40,0x20,0x1F,0x0,0x0
	.DB  0x0,0x3F,0x40,0x60,0x40,0x3F,0x0,0x0
	.DB  0x0,0x63,0x14,0x8,0x14,0x63,0x0,0x0
	.DB  0x0,0x7,0x8,0x70,0x8,0x7,0x0,0x0
	.DB  0x0,0x61,0x51,0x49,0x45,0x43,0x0,0x0
	.DB  0x0,0x7F,0x41,0x41,0x0,0x0,0x0,0x0
	.DB  0x0,0x15,0x16,0x7C,0x16,0x15,0x0,0x0
	.DB  0x0,0x41,0x41,0x7F,0x0,0x0,0x0,0x0
	.DB  0x0,0x4,0x2,0x1,0x2,0x4,0x0,0x0
	.DB  0x0,0x40,0x40,0x40,0x40,0x40,0x0,0x0
	.DB  0x0,0x1,0x2,0x4,0x0,0x0,0x0,0x0
	.DB  0x0,0x20,0x54,0x54,0x54,0x78,0x0,0x0
	.DB  0x0,0x7F,0x44,0x44,0x44,0x38,0x0,0x0
	.DB  0x0,0x38,0x44,0x44,0x44,0x0,0x0,0x0
	.DB  0x0,0x38,0x44,0x44,0x48,0x7F,0x0,0x0
	.DB  0x0,0x38,0x54,0x54,0x54,0x18,0x0,0x0
	.DB  0x0,0x10,0x7E,0x11,0x1,0x2,0x0,0x0
	.DB  0x0,0xC,0x52,0x52,0x52,0x3E,0x0,0x0
	.DB  0x0,0x7F,0x8,0x4,0x4,0x78,0x0,0x0
	.DB  0x0,0x0,0x44,0x7D,0x40,0x0,0x0,0x0
	.DB  0x0,0x20,0x40,0x40,0x3D,0x0,0x0,0x0
	.DB  0x0,0x7F,0x10,0x28,0x44,0x0,0x0,0x0
	.DB  0x0,0x0,0x41,0x7F,0x40,0x0,0x0,0x0
	.DB  0x0,0x7C,0x4,0x18,0x4,0x78,0x0,0x0
	.DB  0x0,0x7C,0x8,0x4,0x4,0x78,0x0,0x0
	.DB  0x0,0x38,0x44,0x44,0x44,0x38,0x0,0x0
	.DB  0x0,0x7C,0x14,0x14,0x14,0x8,0x0,0x0
	.DB  0x0,0x8,0x14,0x14,0x18,0x7C,0x0,0x0
	.DB  0x0,0x7C,0x8,0x4,0x4,0x8,0x0,0x0
	.DB  0x0,0x48,0x54,0x54,0x54,0x20,0x0,0x0
	.DB  0x0,0x4,0x3F,0x44,0x40,0x20,0x0,0x0
	.DB  0x0,0x3C,0x40,0x40,0x20,0x7C,0x0,0x0
	.DB  0x0,0x1C,0x20,0x40,0x20,0x1C,0x0,0x0
	.DB  0x0,0x1E,0x20,0x10,0x20,0x1E,0x0,0x0
	.DB  0x0,0x22,0x14,0x8,0x14,0x22,0x0,0x0
	.DB  0x0,0x6,0x48,0x48,0x48,0x3E,0x0,0x0
	.DB  0x0,0x44,0x64,0x54,0x4C,0x44,0x0,0x0
	.DB  0x0,0x8,0x36,0x41,0x0,0x0,0x0,0x0
	.DB  0x0,0x0,0x0,0x7F,0x0,0x0,0x0,0x0
	.DB  0x0,0x41,0x36,0x8,0x0,0x0,0x0,0x0
	.DB  0x0,0x8,0x8,0x2A,0x1C,0x8,0x0,0x0
	.DB  0x0,0x8,0x1C,0x2A,0x8,0x8,0x0,0x0
	.DB  0x0,0x3C,0x42,0x41,0x42,0x3C,0x0,0x0
	.DB  0x0,0x30,0x28,0x60,0xA0,0x60,0x28,0x30
	.DB  0x20,0x20,0x20,0x20,0xA0,0x20,0x28,0x30
	.DB  0x20,0x20,0x20,0x20,0xB0,0x20,0x20,0x20
	.DB  0x0,0x30,0x28,0x20,0xA0,0x20,0x30,0x20
	.DB  0x20,0x20,0x20,0x22,0x20,0x22,0x28,0x30
	.DB  0x20,0x20,0x20,0x22,0x30,0x22,0x20,0x20
	.DB  0x0,0x30,0x28,0x22,0x20,0x22,0x30,0x20
	.DB  0x20,0x20,0x20,0x22,0x21,0x22,0x28,0x30
	.DB  0x20,0x20,0x20,0x22,0x31,0x22,0x20,0x20
	.DB  0x0,0x30,0x28,0x22,0x21,0x22,0x30,0x20
	.DB  0x20,0x20,0x28,0x28,0x28,0xB0,0x20,0x20
	.DB  0x20,0x20,0x28,0x28,0x28,0x30,0x20,0x20
	.DB  0x0,0xC0,0xA8,0x28,0x68,0xB0,0x60,0x20
	.DB  0x0,0x0,0x80,0x80,0x44,0x32,0x4,0x0
	.DB  0x0,0x24,0x25,0x24,0x38,0x20,0x20,0x20
	.DB  0x30,0x24,0x22,0x21,0x24,0x2A,0x11,0x0
	.DB  0x0,0x80,0x80,0x40,0x34,0x20,0x20,0x20
	.DB  0x20,0x20,0x20,0x38,0x20,0x38,0x20,0x18
	.DB  0x20,0x20,0x38,0x20,0x38,0x20,0x38,0x20
	.DB  0x60,0x80,0x80,0x78,0x20,0x38,0x20,0x18
	.DB  0x20,0x20,0x20,0x38,0x22,0x39,0x22,0x18
	.DB  0x20,0x20,0x38,0x22,0x39,0x22,0x38,0x20
	.DB  0x60,0x80,0x80,0x78,0x22,0x39,0x22,0x18
	.DB  0x30,0x20,0x20,0x20,0x24,0x2A,0x11,0x0
	.DB  0x20,0x30,0x20,0x30,0x28,0x28,0x38,0x20
	.DB  0x60,0x80,0x80,0x60,0x30,0x28,0x28,0x38
	.DB  0x20,0x20,0x30,0x20,0x30,0x28,0x2A,0x18
	.DB  0x20,0x30,0x20,0x30,0x28,0x2A,0x38,0x20
	.DB  0x60,0x80,0x80,0x60,0x30,0x28,0x2A,0x38
	.DB  0x20,0x20,0x3E,0x30,0x28,0x28,0x38,0x20
	.DB  0x20,0x20,0x3E,0x30,0x28,0x2A,0x38,0x20
	.DB  0x20,0x20,0x20,0x20,0x30,0x28,0x28,0x0
	.DB  0x20,0x20,0x20,0x30,0x28,0x28,0x20,0x20
	.DB  0x0,0x40,0xA0,0xB0,0x28,0x28,0x20,0x20
	.DB  0x20,0x20,0x20,0x20,0x30,0x28,0x2A,0x0
	.DB  0x20,0x20,0x20,0x30,0x28,0x2A,0x20,0x20
	.DB  0x0,0x40,0xA0,0xB0,0x28,0x2A,0x20,0x20
	.DB  0x20,0x20,0x20,0x20,0x30,0x28,0x2A,0x30
	.DB  0x20,0x20,0x30,0x28,0x2A,0x30,0x20,0x20
	.DB  0x0,0x18,0x20,0x20,0x30,0x28,0x2A,0x30
	.DB  0x20,0x20,0x20,0x20,0x30,0x2A,0x28,0x32
	.DB  0x20,0x20,0x30,0x2A,0x28,0x32,0x20,0x20
	.DB  0x60,0x80,0x80,0xB2,0xA8,0x7A,0x20,0x20
	.DB  0x22,0x25,0x25,0x25,0x25,0x25,0x25,0x19
	.DB  0x20,0x20,0x20,0x1C,0x22,0x21,0x20,0x20
	.DB  0x30,0x28,0x2C,0x2A,0x20,0x3F,0x20,0x20
	.DB  0x20,0x20,0x20,0x20,0x20,0x20,0x1F,0x0
	.DB  0x20,0x20,0x20,0x20,0x1F,0x20,0x20,0x20
	.DB  0x0,0x30,0x40,0x40,0x3F,0x20,0x20,0x20
	.DB  0x20,0x20,0x20,0x20,0x30,0x48,0x48,0x30
	.DB  0x20,0x20,0x30,0x48,0x48,0x30,0x20,0x20
	.DB  0x80,0x40,0x30,0x48,0x48,0x30,0x20,0x20
	.DB  0x20,0x20,0x20,0x20,0x22,0x20,0x18,0x0
	.DB  0x20,0x20,0x20,0x20,0x1A,0x20,0x20,0x20
	.DB  0x30,0x40,0x44,0x40,0x30,0x20,0x20,0x20
	.DB  0x20,0x20,0x20,0x30,0x28,0x3A,0x2C,0x18
	.DB  0x20,0x20,0x30,0x28,0x3A,0x2C,0x38,0x20
	.DB  0x0,0x18,0x14,0x14,0x18,0x20,0x20,0x20
	.DB  0x0,0x21,0x22,0x24,0x28,0x10,0xF,0x0
	.DB  0x0,0xB0,0xA8,0x78,0x20,0x20,0x20,0x20
	.DB  0x20,0x20,0x20,0xA0,0x20,0xA0,0x28,0x30
	.DB  0x20,0x20,0x20,0xA0,0x30,0xA0,0x20,0x20
	.DB  0x0,0x60,0x80,0x80,0xA0,0x50,0x10,0x20
	.DB  0x0,0x1E,0x20,0x20,0x20,0x20,0x20,0x20
	.DB  0x0,0x20,0x30,0x28,0x28,0x20,0x0,0x0
	.DB  0x0,0x4,0x2,0x2,0x3A,0x2,0x2,0x1
	.DB  0x0,0x0,0x4,0x6,0x3D,0x5,0x4,0x0
	.DB  0x0,0x0,0x4,0xB6,0xAD,0x7D,0x4,0x0
	.DB  0x0,0x0,0x80,0xC0,0xBF,0xA0,0x80,0x0
	.DB  0x4,0x66,0x85,0x95,0xA8,0xA8,0x48,0x0
	.DB  0x0,0x0,0x0,0x3F,0x0,0x0,0x0,0x0
	.DB  0x0,0x30,0x28,0x20,0xA0,0x20,0x28,0x30
	.DB  0x0,0x0,0x30,0x2A,0x28,0x32,0x0,0x0
	.DB  0x0,0x30,0x28,0x22,0x20,0x22,0x28,0x30
	.DB  0x0,0x30,0x28,0x22,0x21,0x22,0x28,0x30
	.DB  0x0,0xC0,0xA8,0xA8,0x28,0xB0,0x20,0x20
	.DB  0x0,0xC0,0xA8,0xA8,0xA8,0x30,0x20,0x20
	.DB  0x0,0xC0,0xA8,0xAA,0x28,0x30,0x20,0x20
	.DB  0x0,0x0,0x24,0x24,0x24,0x38,0x0,0x0
	.DB  0x0,0x0,0x24,0x25,0x24,0x38,0x0,0x0
	.DB  0x0,0x80,0x80,0x40,0x30,0x0,0x0,0x0
	.DB  0x0,0x0,0x80,0x80,0x40,0x34,0x0,0x0
	.DB  0x60,0x80,0x80,0x78,0x20,0x38,0x20,0x18
	.DB  0x60,0x80,0x80,0x78,0x22,0x39,0x22,0x18
	.DB  0x60,0x80,0x80,0x60,0x30,0x28,0x28,0x18
	.DB  0x60,0x80,0x80,0x60,0x30,0x28,0x2A,0x18
	.DB  0x0,0x22,0x14,0x8,0x14,0x22,0x0,0x0
	.DB  0x20,0x20,0x3E,0x30,0x28,0x28,0x18,0x0
	.DB  0x20,0x20,0x3E,0x30,0x28,0x2A,0x18,0x0
	.DB  0x0,0x0,0x40,0xA0,0xB0,0x28,0x28,0x0
	.DB  0x0,0x0,0x40,0xA0,0xB0,0x2A,0x28,0x0
	.DB  0x20,0x20,0x20,0x20,0x20,0x20,0x20,0x20
	.DB  0x0,0x18,0x20,0x20,0x30,0x28,0x2A,0x30
	.DB  0x0,0x60,0x80,0x80,0xB2,0xA8,0x7A,0x0
	.DB  0x0,0x30,0x28,0x2C,0x2A,0x20,0x3F,0x0
	.DB  0x0,0x40,0xA9,0xAA,0xA8,0xF0,0x0,0x0
	.DB  0x0,0x0,0x60,0x80,0x80,0x7E,0x0,0x0
	.DB  0x0,0x40,0xAA,0xA9,0xAA,0xF0,0x0,0x0
	.DB  0x0,0x0,0xC0,0x20,0x30,0x28,0x28,0x30
	.DB  0x0,0x0,0x60,0x80,0x88,0x80,0x60,0x0
	.DB  0x0,0x0,0x30,0x28,0x28,0x30,0x0,0x0
	.DB  0x0,0x0,0x0,0xB0,0xA8,0x78,0x0,0x0
	.DB  0x4,0x26,0x25,0x25,0x28,0x10,0xF,0x0
	.DB  0x4,0x22,0x22,0x26,0x29,0x10,0xF,0x0
	.DB  0x0,0x21,0x22,0x24,0xA8,0xD0,0xAF,0xA0
	.DB  0x0,0x70,0xAA,0xA9,0xAA,0x30,0x0,0x0
	.DB  0x0,0x70,0xAA,0xA8,0xAA,0x30,0x0,0x0
	.DB  0x0,0x30,0x40,0x40,0x50,0x28,0x8,0x0
	.DB  0x0,0x30,0x40,0x40,0x50,0x28,0x8,0x0
	.DB  0x0,0x0,0x2,0x79,0x2,0x0,0x0,0x0
	.DB  0x0,0x0,0x2,0x78,0x2,0x0,0x0,0x0
	.DB  0x0,0x0,0x0,0x0,0x0,0x5,0x5,0x5
	.DB  0x0,0x0,0x0,0x4,0x3,0xB,0x6,0x6
	.DB  0xA0,0xA0,0xA0,0x0,0x0,0x0,0x0,0x0
	.DB  0x0,0x0,0x1,0x1,0x1,0x1,0x0,0x0
	.DB  0x0,0x21,0x22,0x24,0x28,0x10,0x2F,0x20
	.DB  0x0,0x0,0x0,0x0,0x0,0x4,0x3,0x3
	.DB  0x0,0x0,0x80,0x80,0x80,0x80,0x0,0x0
	.DB  0x0,0x0,0x10,0x10,0x54,0x10,0x10,0x0
	.DB  0x0,0x0,0x2,0x4,0x2,0x4,0x2,0x0
	.DB  0x20,0x24,0x26,0x25,0x25,0x20,0x28,0x30
	.DB  0x20,0x24,0x26,0x25,0x35,0x20,0x20,0x20
	.DB  0x8,0x6C,0x8A,0x8A,0xA0,0x50,0x10,0x20
	.DB  0x4,0xB6,0xAD,0x7D,0x24,0x20,0x20,0x20
	.DB  0x0,0x19,0x14,0x15,0x18,0x20,0x20,0x20
	.DB  0x4,0x2,0x2,0x1A,0x22,0x22,0x21,0x20
	.DB  0x0,0x40,0x60,0x50,0x48,0x50,0x40,0x40
_map:
	.DB  0xC1,0xC1,0xC1,0xC1,0x0,0x0,0xC2,0xC2
	.DB  0xFE,0xFE,0x1,0x0,0xC3,0xC3,0x1F,0x1F
	.DB  0x1,0x0,0xC4,0xC4,0xFC,0xFC,0x1,0x0
	.DB  0xC5,0xC5,0xC5,0xC5,0x1,0x1,0xC6,0xBD
	.DB  0xBF,0xBE,0x1,0x1,0xC7,0xC7,0xC0,0xC0
	.DB  0x1,0x0,0xC8,0x82,0x84,0x83,0x1,0x1
	.DB  0xC9,0xC9,0xFD,0xFD,0x1,0x0,0xCA,0x85
	.DB  0x87,0x86,0x1,0x1,0xCB,0x88,0x8A,0x89
	.DB  0x1,0x1,0xCC,0x8B,0xCC,0x8B,0x1,0x1
	.DB  0xCD,0x8C,0xCD,0x8C,0x1,0x1,0xCE,0x11
	.DB  0xCE,0x11,0x1,0x1,0xCF,0xCF,0x13,0x13
	.DB  0x1,0x0,0xD0,0xD0,0x8F,0x8F,0x1,0x0
	.DB  0xD1,0xD1,0x1B,0x1B,0x1,0x0,0xD2,0xD2
	.DB  0x91,0x91,0x1,0x0,0xD3,0x92,0x94,0x93
	.DB  0x1,0x1,0xD4,0x95,0x97,0x96,0x1,0x1
	.DB  0xD5,0x17,0x9A,0x99,0x1,0x1,0xD6,0x9B
	.DB  0x9D,0x9C,0x1,0x1,0xD7,0xD7,0xD7,0xD7
	.DB  0x0,0x0,0xD8,0xD8,0x9E,0x9E,0x1,0x1
	.DB  0xD9,0xD9,0x9F,0x9F,0x1,0x1,0xDA,0xA0
	.DB  0xA2,0xA1,0x1,0x1,0xDB,0xA3,0xA5,0xA4
	.DB  0x1,0x1,0xDC,0xDC,0xDC,0xDC,0x0,0x0
	.DB  0xDD,0xA6,0xA8,0xA7,0x1,0x1,0xDE,0xA9
	.DB  0xAB,0xAA,0x1,0x1,0xDF,0xAC,0xAE,0xAD
	.DB  0x1,0x1,0xE0,0xE0,0xE0,0xE0,0x0,0x0
	.DB  0xE1,0xAF,0xB1,0xB0,0x1,0x1,0xE2,0xE2
	.DB  0xE2,0xE2,0x0,0x0,0xE3,0xB2,0xB4,0xB3
	.DB  0x1,0x1,0xE4,0xB5,0xB7,0xB6,0x1,0x1
	.DB  0xE5,0xB8,0xBA,0xB9,0x1,0x1,0xE6,0xE6
	.DB  0xBC,0xBC,0x1,0x0,0xE7,0xE7,0xE7,0xE7
	.DB  0x0,0x0,0xE8,0xE8,0xE8,0xE8,0x0,0x0
	.DB  0xE9,0xE9,0xE9,0xE9,0x0,0x0,0xEA,0xEA
	.DB  0xEA,0xEA,0x0,0x0,0xEB,0xEB,0xEB,0xEB
	.DB  0x0,0x0,0xEC,0xBD,0xBF,0xBE,0x1,0x1
	.DB  0xED,0xBD,0xBF,0xBE,0x1,0x1,0xEE,0xEE
	.DB  0xEE,0xEE,0x0,0x0,0xEF,0xEF,0xEF,0xEF
	.DB  0x0,0x0,0xF0,0xF0,0xF0,0xF0,0x0,0x0
	.DB  0xF1,0xF1,0xF1,0xF1,0x0,0x0,0xF2,0xF2
	.DB  0xF2,0xF2,0x0,0x0,0xF3,0xF3,0xF3,0xF3
	.DB  0x0,0x0,0xF5,0xF5,0xF5,0xF5,0x0,0x0
	.DB  0xF6,0xF6,0xF6,0xF6,0x0,0x0,0xF7,0xF7
	.DB  0xF7,0xF7,0x0,0x0,0xF8,0xF8,0xF8,0xF8
	.DB  0x0,0x0,0xFB,0xF9,0xFB,0xFA,0x1,0x1
	.DB  0xBB,0xBB,0xF4,0xF4,0x1,0x0,0x81,0x1C
	.DB  0x1E,0x1D,0x1,0x1,0x90,0x18,0x1A,0x19
	.DB  0x1,0x1,0x98,0x14,0x16,0x15,0x1,0x1
	.DB  0x8E,0x8E,0x12,0x12,0x1,0x0,0x8D,0x10
	.DB  0x8D,0x10,0x1,0x1
_clock:
	.DB  0x0,0x0,0x0,0x0,0x0,0x0,0x0,0x0
	.DB  0x0,0x0,0x0,0x80,0x80,0x40,0x20,0x20
	.DB  0x90,0x88,0x8,0x0,0x4,0x4,0x2,0x2
	.DB  0x2,0x2,0x1,0x1,0x1,0x1,0x1,0xF9
	.DB  0x1,0x1,0x1,0x1,0x1,0x1,0x2,0x2
	.DB  0x2,0x2,0x4,0x4,0x80,0xC8,0x8,0x10
	.DB  0x20,0x20,0x40,0x80,0x80,0x0,0x0,0x0
	.DB  0x0,0x0,0x0,0x0,0x0,0x0,0x0,0x0
	.DB  0x0,0x0,0x0,0x0,0x0,0x0,0x0,0x0
	.DB  0x0,0x0,0x0,0x0,0x0,0x0,0x0,0x0
	.DB  0x0,0x0,0x0,0x0,0x0,0x0,0x0,0x0
	.DB  0x0,0x0,0x0,0x0,0x0,0x0,0x0,0x0
	.DB  0x0,0x0,0x0,0x0,0x0,0x0,0x0,0x0
	.DB  0x0,0x0,0x0,0x0,0x0,0x0,0x0,0x0
	.DB  0x0,0x0,0x0,0x0,0x0,0x0,0x0,0x0
	.DB  0x0,0x0,0x0,0x0,0x0,0x0,0x0,0x0
	.DB  0x0,0x0,0x0,0x0,0x0,0xC0,0x20,0x18
	.DB  0xC,0x2,0x1,0x1,0x0,0x0,0x0,0x0
	.DB  0x0,0x1,0x6,0x8,0x0,0x0,0x0,0x0
	.DB  0x0,0x0,0x0,0x0,0x0,0x0,0x0,0x1
	.DB  0x0,0x0,0x0,0x0,0x0,0x0,0x0,0x0
	.DB  0x0,0x0,0x0,0x6,0x3,0x0,0x0,0x0
	.DB  0x0,0x0,0x0,0x0,0x1,0x1,0x2,0xC
	.DB  0x18,0x20,0xC0,0x0,0x0,0x0,0x0,0x0
	.DB  0x0,0x0,0x0,0x0,0x0,0x0,0x0,0x0
	.DB  0x0,0x0,0x0,0x0,0x0,0x0,0x0,0x0
	.DB  0x0,0x0,0x0,0x0,0x0,0x0,0x0,0x0
	.DB  0x0,0x0,0x0,0x0,0x0,0x0,0x0,0x0
	.DB  0x0,0x0,0x0,0x0,0x0,0x0,0x0,0x0
	.DB  0x0,0x0,0x0,0x0,0x0,0x0,0x0,0x0
	.DB  0x0,0x0,0x0,0x0,0x0,0x0,0x0,0x0
	.DB  0x0,0x0,0x0,0x0,0x0,0x0,0x0,0x0
	.DB  0x0,0xC0,0x30,0x6,0x1,0x0,0x6,0x4
	.DB  0xC,0x8,0x10,0x10,0x0,0x0,0x0,0x0
	.DB  0x0,0x0,0x0,0x0,0x0,0x0,0x0,0x0
	.DB  0x0,0x0,0x0,0x0,0x0,0x0,0x0,0x0
	.DB  0x0,0x0,0x0,0x0,0x0,0x0,0x0,0x0
	.DB  0x0,0x0,0x0,0x0,0x0,0x0,0x0,0x0
	.DB  0x0,0x0,0x0,0x8,0x8,0x4,0x4,0x2
	.DB  0x2,0x0,0x0,0x1,0x6,0x38,0xC0,0x0
	.DB  0x0,0x0,0x0,0x0,0x0,0x0,0x0,0x0
	.DB  0x0,0x0,0x0,0x0,0x0,0x0,0x0,0x0
	.DB  0x0,0x0,0x0,0x0,0x0,0x0,0x0,0x0
	.DB  0x0,0x0,0x0,0x0,0x0,0x0,0x0,0x0
	.DB  0x0,0x0,0x0,0x0,0x0,0x0,0x0,0x0
	.DB  0x0,0x0,0x0,0x0,0x0,0x0,0x0,0x0
	.DB  0x0,0x0,0x0,0x0,0x0,0x0,0x0,0x0
	.DB  0x0,0x0,0x0,0x0,0x0,0x0,0x0,0x0
	.DB  0xFC,0x3,0x0,0x0,0x0,0x0,0x0,0x0
	.DB  0x0,0x0,0x0,0x0,0x0,0x0,0x0,0x0
	.DB  0x0,0x0,0x0,0x0,0x0,0x0,0x0,0x0
	.DB  0x0,0x0,0x0,0x0,0x0,0x0,0x0,0x0
	.DB  0x0,0x0,0x0,0x0,0x0,0x0,0x0,0x0
	.DB  0x0,0x0,0x0,0x0,0x0,0x0,0x0,0x0
	.DB  0x0,0x0,0x0,0x0,0x0,0x0,0x0,0x80
	.DB  0x80,0x80,0x80,0x80,0x80,0x0,0x3,0xFC
	.DB  0x0,0x0,0x0,0x0,0x0,0x0,0x0,0x0
	.DB  0x0,0x0,0x0,0x0,0x0,0x0,0x0,0x0
	.DB  0x0,0x0,0x0,0x0,0x0,0x0,0x0,0x0
	.DB  0x0,0x0,0x0,0x0,0x0,0x0,0x0,0x0
	.DB  0x0,0x0,0x0,0x0,0x0,0x0,0x0,0x0
	.DB  0x0,0x0,0x0,0x0,0x0,0x0,0x0,0x0
	.DB  0x0,0x0,0x0,0x0,0x0,0x0,0x0,0x0
	.DB  0x0,0x0,0x0,0x0,0x0,0x0,0x0,0x0
	.DB  0x3F,0xC0,0x1,0x1,0x1,0x1,0x1,0x1
	.DB  0x1,0x0,0x0,0x0,0x0,0x0,0x0,0x0
	.DB  0x0,0x0,0x0,0x0,0x0,0x0,0x0,0x0
	.DB  0x0,0x0,0x0,0x0,0x0,0x0,0x0,0x0
	.DB  0x0,0x0,0x0,0x0,0x0,0x0,0x0,0x0
	.DB  0x0,0x0,0x0,0x0,0x0,0x0,0x0,0x0
	.DB  0x0,0x0,0x0,0x0,0x0,0x0,0x0,0x0
	.DB  0x0,0x0,0x0,0x0,0x0,0x0,0xC0,0x3F
	.DB  0x0,0x0,0x0,0x0,0x0,0x0,0x0,0x0
	.DB  0x0,0x0,0x0,0x0,0x0,0x0,0x0,0x0
	.DB  0x0,0x0,0x0,0x0,0x0,0x0,0x0,0x0
	.DB  0x0,0x0,0x0,0x0,0x0,0x0,0x0,0x0
	.DB  0x0,0x0,0x0,0x0,0x0,0x0,0x0,0x0
	.DB  0x0,0x0,0x0,0x0,0x0,0x0,0x0,0x0
	.DB  0x0,0x0,0x0,0x0,0x0,0x0,0x0,0x0
	.DB  0x0,0x0,0x0,0x0,0x0,0x0,0x0,0x0
	.DB  0x0,0x3,0xC,0x60,0x80,0x0,0x0,0x40
	.DB  0x60,0x20,0x10,0x18,0x0,0x0,0x0,0x0
	.DB  0x0,0x0,0x0,0x0,0x0,0x0,0x0,0x0
	.DB  0x0,0x0,0x0,0x0,0x0,0x0,0x0,0x0
	.DB  0x0,0x0,0x0,0x0,0x0,0x0,0x0,0x0
	.DB  0x0,0x0,0x0,0x0,0x0,0x0,0x0,0x0
	.DB  0x0,0x0,0x0,0x0,0x8,0x8,0x10,0x30
	.DB  0x20,0x0,0x0,0x80,0x60,0x1C,0x3,0x0
	.DB  0x0,0x0,0x0,0x0,0x0,0x0,0x0,0x0
	.DB  0x0,0x0,0x0,0x0,0x0,0x0,0x0,0x0
	.DB  0x0,0x0,0x0,0x0,0x0,0x0,0x0,0x0
	.DB  0x0,0x0,0x0,0x0,0x0,0x0,0x0,0x0
	.DB  0x0,0x0,0x0,0x0,0x0,0x0,0x0,0x0
	.DB  0x0,0x0,0x0,0x0,0x0,0x0,0x0,0x0
	.DB  0x0,0x0,0x0,0x0,0x0,0x0,0x0,0x0
	.DB  0x0,0x0,0x0,0x0,0x0,0x0,0x0,0x0
	.DB  0x0,0x0,0x0,0x0,0x0,0x3,0x4,0x18
	.DB  0x30,0x40,0x80,0x80,0x0,0x0,0x0,0x0
	.DB  0x0,0x0,0x80,0xE0,0x30,0x0,0x0,0x0
	.DB  0x0,0x0,0x0,0x0,0x0,0x0,0x0,0x0
	.DB  0x80,0x0,0x0,0x0,0x0,0x0,0x0,0x0
	.DB  0x0,0x0,0x0,0x0,0x30,0xC0,0x80,0x0
	.DB  0x0,0x0,0x0,0x0,0x80,0x80,0x40,0x30
	.DB  0x18,0x4,0x3,0x0,0x0,0x0,0x0,0x0
	.DB  0x0,0x0,0x0,0x0,0x0,0x0,0x0,0x0
	.DB  0x0,0x0,0x0,0x0,0x0,0x0,0x0,0x0
	.DB  0x0,0x0,0x0,0x0,0x0,0x0,0x0,0x0
	.DB  0x0,0x0,0x0,0x0,0x0,0x0,0x0,0x0
	.DB  0x0,0x0,0x0,0x0,0x0,0x0,0x0,0x0
	.DB  0x0,0x0,0x0,0x0,0x0,0x0,0x0,0x0
	.DB  0x0,0x0,0x0,0x0,0x0,0x0,0x0,0x0
	.DB  0x0,0x0,0x0,0x0,0x0,0x0,0x0,0x0
	.DB  0x0,0x0,0x0,0x0,0x0,0x0,0x0,0x0
	.DB  0x0,0x0,0x0,0x1,0x1,0x2,0x4,0x4
	.DB  0x8,0x12,0x11,0x20,0x20,0x20,0x40,0x40
	.DB  0x40,0x40,0x80,0x80,0x80,0x80,0x80,0x80
	.DB  0x9F,0x80,0x80,0x80,0x80,0x80,0x40,0x40
	.DB  0x40,0x40,0x20,0x20,0x20,0x10,0x11,0x8
	.DB  0x4,0x4,0x2,0x1,0x1,0x0,0x0,0x0
	.DB  0x0,0x0,0x0,0x0,0x0,0x0,0x0,0x0
	.DB  0x0,0x0,0x0,0x0,0x0,0x0,0x0,0x0
	.DB  0x0,0x0,0x0,0x0,0x0,0x0,0x0,0x0
	.DB  0x0,0x0,0x0,0x0,0x0,0x0,0x0,0x0
	.DB  0x0,0x0,0x0,0x0,0x0,0x0,0x0,0x0
	.DB  0x0,0x0,0x0,0x0,0x0,0x0,0x0,0x0
	.DB  0x0,0x0,0x0,0x0,0x0,0x0,0x0,0x0
	.DB  0x0,0x0,0x0,0x0,0x0,0x0,0x0,0x0
	.DB  0x0,0x0,0x0,0x0,0x0,0x0,0x0,0x0
_tbl10_G100:
	.DB  0x10,0x27,0xE8,0x3,0x64,0x0,0xA,0x0
	.DB  0x1,0x0
_tbl16_G100:
	.DB  0x0,0x10,0x0,0x1,0x10,0x0,0x1,0x0

_0x3:
	.DB  0xC1
_0xC7:
	.DB  0x0,0x0,0x0,0x0,0x0,0x0,0x0,0x0
	.DB  0x0,0x0,0x0,0x0,0x0,0x0,0x0,0x0
	.DB  0x14,0x0,0x17,0x0,0xF,0x0
_0x0:
	.DB  0x25,0x30,0x32,0x64,0x3A,0x25,0x30,0x32
	.DB  0x64,0x3A,0x25,0x30,0x32,0x64,0x0
_0x2020060:
	.DB  0x1
_0x2020000:
	.DB  0x2D,0x4E,0x41,0x4E,0x0,0x49,0x4E,0x46
	.DB  0x0

__GLOBAL_INI_TBL:
	.DW  0x01
	.DW  _prevLet_G000
	.DW  _0x3*2

	.DW  0x01
	.DW  __seed_G101
	.DW  _0x2020060*2

_0xFFFFFFFF:
	.DW  0

#define __GLOBAL_INI_TBL_PRESENT 1

__RESET:
	CLI
	CLR  R30
	OUT  EECR,R30

;INTERRUPT VECTORS ARE PLACED
;AT THE START OF FLASH
	LDI  R31,1
	OUT  GICR,R31
	OUT  GICR,R30
	OUT  MCUCR,R30

;CLEAR R2-R14
	LDI  R24,(14-2)+1
	LDI  R26,2
	CLR  R27
__CLEAR_REG:
	ST   X+,R30
	DEC  R24
	BRNE __CLEAR_REG

;CLEAR SRAM
	LDI  R24,LOW(__CLEAR_SRAM_SIZE)
	LDI  R25,HIGH(__CLEAR_SRAM_SIZE)
	LDI  R26,__SRAM_START
__CLEAR_SRAM:
	ST   X+,R30
	SBIW R24,1
	BRNE __CLEAR_SRAM

;GLOBAL VARIABLES INITIALIZATION
	LDI  R30,LOW(__GLOBAL_INI_TBL*2)
	LDI  R31,HIGH(__GLOBAL_INI_TBL*2)
__GLOBAL_INI_NEXT:
	LPM  R24,Z+
	LPM  R25,Z+
	SBIW R24,0
	BREQ __GLOBAL_INI_END
	LPM  R26,Z+
	LPM  R27,Z+
	LPM  R0,Z+
	LPM  R1,Z+
	MOVW R22,R30
	MOVW R30,R0
__GLOBAL_INI_LOOP:
	LPM  R0,Z+
	ST   X+,R0
	SBIW R24,1
	BRNE __GLOBAL_INI_LOOP
	MOVW R30,R22
	RJMP __GLOBAL_INI_NEXT
__GLOBAL_INI_END:

;HARDWARE STACK POINTER INITIALIZATION
	LDI  R30,LOW(__SRAM_END-__HEAP_SIZE)
	OUT  SPL,R30
	LDI  R30,HIGH(__SRAM_END-__HEAP_SIZE)
	OUT  SPH,R30

;DATA STACK POINTER INITIALIZATION
	LDI  R28,LOW(__SRAM_START+__DSTACK_SIZE)
	LDI  R29,HIGH(__SRAM_START+__DSTACK_SIZE)

	JMP  _main

	.ESEG
	.ORG 0

	.DSEG
	.ORG 0x260

	.CSEG
;#include <mega32.h>
	#ifndef __SLEEP_DEFINED__
	#define __SLEEP_DEFINED__
	.EQU __se_bit=0x80
	.EQU __sm_mask=0x70
	.EQU __sm_powerdown=0x20
	.EQU __sm_powersave=0x30
	.EQU __sm_standby=0x60
	.EQU __sm_ext_standby=0x70
	.EQU __sm_adc_noise_red=0x10
	.SET power_ctrl_reg=mcucr
	#endif
;#include <delay.h>
;#include <stdio.h>
;#include "Includes/GLCD.h"

	.DSEG

	.CSEG
_trigger:
; .FSTART _trigger
	SBI  0x1B,5
	__DELAY_USB 1
	CBI  0x1B,5
	__DELAY_USB 1
	RET
; .FEND
_glcd_on:
; .FSTART _glcd_on
	SBI  0x1B,4
	SBI  0x1B,3
	CBI  0x1B,7
	CBI  0x1B,6
	LDI  R30,LOW(63)
	OUT  0x15,R30
	RCALL _trigger
	RET
; .FEND
;	line -> Y+0
_goto_col:
; .FSTART _goto_col
	ST   -Y,R27
	ST   -Y,R26
	ST   -Y,R17
;	x -> Y+1
;	pattern -> R17
	CBI  0x1B,7
	CBI  0x1B,6
	LDD  R26,Y+1
	LDD  R27,Y+1+1
	CPI  R26,LOW(0x40)
	LDI  R30,HIGH(0x40)
	CPC  R27,R30
	BRSH _0x24
	SBI  0x1B,4
	CBI  0x1B,3
	LDD  R17,Y+1
	RJMP _0x29
_0x24:
	SBI  0x1B,3
	CBI  0x1B,4
	LDD  R30,Y+1
	SUBI R30,LOW(64)
	MOV  R17,R30
_0x29:
	MOV  R30,R17
	ORI  R30,0x40
	ANDI R30,0x7F
	MOV  R17,R30
	OUT  0x15,R17
	RCALL _trigger
	LDD  R17,Y+0
	RJMP _0x20A0004
; .FEND
_goto_row:
; .FSTART _goto_row
	ST   -Y,R27
	ST   -Y,R26
	ST   -Y,R17
;	y -> Y+1
;	pattern -> R17
	CBI  0x1B,7
	CBI  0x1B,6
	LDD  R30,Y+1
	ORI  R30,LOW(0xB8)
	ANDI R30,0xBF
	MOV  R17,R30
	OUT  0x15,R17
	RCALL _trigger
	LDD  R17,Y+0
	RJMP _0x20A0004
; .FEND
_goto_xy:
; .FSTART _goto_xy
	ST   -Y,R27
	ST   -Y,R26
;	x -> Y+2
;	y -> Y+0
	LDD  R26,Y+2
	LDD  R27,Y+2+1
	RCALL _goto_col
	LD   R26,Y
	LDD  R27,Y+1
	RCALL _goto_row
	ADIW R28,4
	RET
; .FEND
_glcd_write:
; .FSTART _glcd_write
	ST   -Y,R26
;	b -> Y+0
	SBI  0x1B,7
	CBI  0x1B,6
	LD   R30,Y
	OUT  0x15,R30
	__DELAY_USB 3
	RCALL _trigger
	ADIW R28,1
	RET
; .FEND
_glcd_clrln:
; .FSTART _glcd_clrln
	ST   -Y,R26
	ST   -Y,R17
	ST   -Y,R16
;	ln -> Y+2
;	i -> R16,R17
	CALL SUBOPT_0x0
	LDD  R26,Y+4
	CLR  R27
	RCALL _goto_xy
	LDI  R30,LOW(64)
	LDI  R31,HIGH(64)
	ST   -Y,R31
	ST   -Y,R30
	LDD  R26,Y+4
	CLR  R27
	RCALL _goto_xy
	SBI  0x1B,4
	__GETWRN 16,17,0
_0x39:
	__CPWRN 16,17,65
	BRGE _0x3A
	LDI  R26,LOW(0)
	RCALL _glcd_write
	__ADDWRN 16,17,1
	RJMP _0x39
_0x3A:
	LDD  R17,Y+1
	LDD  R16,Y+0
_0x20A0004:
	ADIW R28,3
	RET
; .FEND
_glcd_clear:
; .FSTART _glcd_clear
	ST   -Y,R17
	ST   -Y,R16
;	i -> R16,R17
	__GETWRN 16,17,0
_0x3C:
	__CPWRN 16,17,8
	BRGE _0x3D
	MOV  R26,R16
	RCALL _glcd_clrln
	__ADDWRN 16,17,1
	RJMP _0x3C
_0x3D:
	LD   R16,Y+
	LD   R17,Y+
	RET
; .FEND
;	status -> R17
_glcd_read:
; .FSTART _glcd_read
	ST   -Y,R26
	ST   -Y,R17
;	column -> Y+1
;	read_data -> R17
	LDI  R17,0
	LDI  R30,LOW(0)
	OUT  0x14,R30
	SBI  0x1B,6
	SBI  0x1B,7
	LDD  R26,Y+1
	LDI  R30,LOW(64)
	CALL __LTB12U
	CPI  R30,0
	BRNE _0x50
	CBI  0x1B,4
	RJMP _0x51
_0x50:
	SBI  0x1B,4
_0x51:
	SBIS 0x1B,4
	RJMP _0x52
	CBI  0x1B,3
	RJMP _0x53
_0x52:
	SBI  0x1B,3
_0x53:
	__DELAY_USB 3
	SBI  0x1B,5
	__DELAY_USB 3
	CBI  0x1B,5
	__DELAY_USB 7
	SBI  0x1B,5
	__DELAY_USB 3
	IN   R17,19
	CBI  0x1B,5
	__DELAY_USB 3
	LDI  R30,LOW(255)
	OUT  0x14,R30
	MOV  R30,R17
	LDD  R17,Y+0
	ADIW R28,2
	RET
; .FEND
_point_at:
; .FSTART _point_at
	ST   -Y,R26
	ST   -Y,R17
;	x -> Y+4
;	y -> Y+2
;	color -> Y+1
;	pattern -> R17
	CALL SUBOPT_0x1
	LDD  R30,Y+1
	LDI  R31,0
	SBIW R30,0
	BRNE _0x5F
	LDD  R30,Y+2
	ANDI R30,LOW(0x7)
	LDI  R26,LOW(1)
	CALL __LSLB12
	COM  R30
	PUSH R30
	LDD  R26,Y+4
	RCALL _glcd_read
	POP  R26
	AND  R30,R26
	RJMP _0xD0
_0x5F:
	CPI  R30,LOW(0x1)
	LDI  R26,HIGH(0x1)
	CPC  R31,R26
	BRNE _0x5E
	LDD  R30,Y+2
	ANDI R30,LOW(0x7)
	LDI  R26,LOW(1)
	CALL __LSLB12
	PUSH R30
	LDD  R26,Y+4
	RCALL _glcd_read
	POP  R26
	OR   R30,R26
_0xD0:
	MOV  R17,R30
_0x5E:
	CALL SUBOPT_0x1
	MOV  R26,R17
	RCALL _glcd_write
	LDD  R17,Y+0
	ADIW R28,6
	RET
; .FEND
_h_line:
; .FSTART _h_line
	ST   -Y,R26
	ST   -Y,R17
	ST   -Y,R16
;	x -> Y+7
;	y -> Y+5
;	l -> Y+4
;	s -> Y+3
;	c -> Y+2
;	i -> R16,R17
	__GETWRS 16,17,7
_0x62:
	LDD  R30,Y+4
	LDI  R31,0
	LDD  R26,Y+7
	LDD  R27,Y+7+1
	ADD  R30,R26
	ADC  R31,R27
	CP   R16,R30
	CPC  R17,R31
	BRSH _0x63
	ST   -Y,R17
	ST   -Y,R16
	LDD  R30,Y+7
	LDD  R31,Y+7+1
	ST   -Y,R31
	ST   -Y,R30
	LDD  R26,Y+6
	RCALL _point_at
	CALL SUBOPT_0x2
	RJMP _0x62
_0x63:
	LDD  R17,Y+1
	LDD  R16,Y+0
	ADIW R28,9
	RET
; .FEND
_v_line:
; .FSTART _v_line
	ST   -Y,R26
	ST   -Y,R17
	ST   -Y,R16
;	x -> Y+8
;	y -> Y+6
;	l -> Y+4
;	s -> Y+3
;	c -> Y+2
;	i -> R16,R17
	__GETWRS 16,17,6
_0x65:
	LDD  R30,Y+4
	LDD  R31,Y+4+1
	LDD  R26,Y+6
	LDD  R27,Y+6+1
	ADD  R30,R26
	ADC  R31,R27
	CP   R16,R30
	CPC  R17,R31
	BRSH _0x66
	CALL SUBOPT_0x3
	ST   -Y,R17
	ST   -Y,R16
	LDD  R26,Y+6
	RCALL _point_at
	CALL SUBOPT_0x2
	RJMP _0x65
_0x66:
	LDD  R17,Y+1
	LDD  R16,Y+0
	ADIW R28,10
	RET
; .FEND
_line:
; .FSTART _line
	ST   -Y,R26
	SBIW R28,8
	CALL __SAVELOCR6
;	x1 -> Y+22
;	y1 -> Y+20
;	x2 -> Y+18
;	y2 -> Y+16
;	s -> Y+15
;	c -> Y+14
;	i -> R17
;	y01 -> R16
;	temp -> R19
;	a -> Y+10
;	b -> Y+6
;	y00 -> R18
;	y010 -> R21
	CALL SUBOPT_0x4
	BRNE _0x67
	CALL SUBOPT_0x5
	CALL SUBOPT_0x5
	CALL SUBOPT_0x6
	LDD  R26,Y+24
	LDD  R27,Y+24+1
	LDD  R30,Y+20
	LDD  R31,Y+20+1
	SUB  R30,R26
	SBC  R31,R27
	MOVW R26,R30
	CALL _abs
	ADIW R30,1
	ST   -Y,R31
	ST   -Y,R30
	LDD  R30,Y+21
	ST   -Y,R30
	LDD  R26,Y+21
	RCALL _v_line
	RJMP _0x68
_0x67:
	LDD  R30,Y+16
	LDD  R31,Y+16+1
	LDD  R26,Y+20
	LDD  R27,Y+20+1
	CP   R30,R26
	CPC  R31,R27
	BRNE _0x69
	CALL SUBOPT_0x5
	CALL SUBOPT_0x6
	CALL SUBOPT_0x5
	LDD  R26,Y+26
	LDD  R27,Y+26+1
	LDD  R30,Y+22
	LDD  R31,Y+22+1
	SUB  R30,R26
	SBC  R31,R27
	MOVW R26,R30
	CALL _abs
	SUBI R30,-LOW(1)
	ST   -Y,R30
	LDD  R30,Y+20
	CALL SUBOPT_0x7
	RJMP _0x6A
_0x69:
	CALL SUBOPT_0x4
	BRSH _0x6B
	LDD  R19,Y+22
	LDD  R30,Y+18
	LDD  R31,Y+18+1
	STD  Y+22,R30
	STD  Y+22+1,R31
	MOV  R30,R19
	LDI  R31,0
	STD  Y+18,R30
	STD  Y+18+1,R31
	LDD  R19,Y+20
	LDD  R30,Y+16
	LDD  R31,Y+16+1
	STD  Y+20,R30
	STD  Y+20+1,R31
	MOV  R30,R19
	LDI  R31,0
	STD  Y+16,R30
	STD  Y+16+1,R31
_0x6B:
	LDD  R26,Y+20
	LDD  R27,Y+20+1
	LDD  R30,Y+16
	LDD  R31,Y+16+1
	SUB  R30,R26
	SBC  R31,R27
	CALL SUBOPT_0x8
	PUSH R23
	PUSH R22
	PUSH R31
	PUSH R30
	LDD  R26,Y+22
	LDD  R27,Y+22+1
	LDD  R30,Y+18
	LDD  R31,Y+18+1
	SUB  R30,R26
	SBC  R31,R27
	POP  R26
	POP  R27
	POP  R24
	POP  R25
	CALL SUBOPT_0x9
	CALL __DIVF21
	__PUTD1S 10
	CALL SUBOPT_0xA
	LDD  R26,Y+20
	LDD  R27,Y+20+1
	CLR  R24
	CLR  R25
	CALL __CDF2
	CALL SUBOPT_0xB
	__PUTD1S 6
	CALL SUBOPT_0xA
	CALL SUBOPT_0xC
	CALL __CFD1U
	MOV  R18,R30
	MOV  R21,R18
	LDD  R30,Y+22
	SUBI R30,-LOW(1)
	MOV  R17,R30
_0x6D:
	CALL SUBOPT_0xD
	BRSH PC+2
	RJMP _0x6E
	MOV  R30,R17
	LDI  R31,0
	__GETD2S 10
	CALL SUBOPT_0x8
	CALL __MULF12
	CALL SUBOPT_0xC
	__GETD2N 0x3F000000
	CALL __ADDF12
	CALL __CFD1U
	MOV  R16,R30
	MOV  R26,R16
	CLR  R27
	MOV  R30,R21
	CALL SUBOPT_0xE
	BRLT _0x6F
	MOV  R30,R17
	LDI  R31,0
	SBIW R30,1
	ST   -Y,R31
	ST   -Y,R30
	MOV  R30,R21
	CALL SUBOPT_0xF
	MOV  R26,R16
	CLR  R27
	MOV  R30,R21
	RJMP _0xD1
_0x6F:
	MOV  R26,R21
	CLR  R27
	MOV  R30,R16
	CALL SUBOPT_0xE
	BRLT _0x71
	MOV  R30,R17
	LDI  R31,0
	SBIW R30,1
	ST   -Y,R31
	ST   -Y,R30
	MOV  R30,R16
	CALL SUBOPT_0xF
	MOV  R26,R21
	CLR  R27
	MOV  R30,R16
_0xD1:
	LDI  R31,0
	SUB  R26,R30
	SBC  R27,R31
	SBIW R26,1
	ST   -Y,R27
	ST   -Y,R26
	LDD  R30,Y+21
	ST   -Y,R30
	LDD  R26,Y+21
	RCALL _v_line
_0x71:
	CALL SUBOPT_0xD
	BRNE _0x73
	CP   R16,R18
	BREQ _0x74
_0x73:
	RJMP _0x72
_0x74:
	CALL SUBOPT_0x5
	MOV  R30,R16
	LDI  R31,0
	ST   -Y,R31
	ST   -Y,R30
	LDD  R26,Y+26
	LDD  R30,Y+22
	SUB  R30,R26
	ST   -Y,R30
	LDI  R30,LOW(0)
	CALL SUBOPT_0x7
_0x72:
	MOV  R21,R16
	CP   R16,R18
	BREQ _0x6C
	CALL SUBOPT_0x5
	MOV  R30,R18
	LDI  R31,0
	ST   -Y,R31
	ST   -Y,R30
	LDD  R26,Y+26
	MOV  R30,R17
	SUB  R30,R26
	ST   -Y,R30
	LDI  R30,LOW(0)
	CALL SUBOPT_0x7
	MOV  R30,R17
	LDI  R31,0
	STD  Y+22,R30
	STD  Y+22+1,R31
	MOV  R18,R16
_0x6C:
	SUBI R17,-1
	RJMP _0x6D
_0x6E:
	LDD  R30,Y+18
	LDD  R31,Y+18+1
	ST   -Y,R31
	ST   -Y,R30
	LDD  R30,Y+18
	LDD  R31,Y+18+1
	ST   -Y,R31
	ST   -Y,R30
	LDD  R26,Y+18
	RCALL _point_at
_0x6A:
_0x68:
	CALL __LOADLOCR6
	ADIW R28,24
	RET
; .FEND
;	x1 -> Y+8
;	y1 -> Y+6
;	x2 -> Y+4
;	y2 -> Y+2
;	s -> Y+1
;	c -> Y+0
;	x11 -> Y+16
;	y11 -> Y+14
;	x12 -> Y+12
;	y12 -> Y+10
;	x21 -> Y+8
;	y21 -> Y+6
;	x22 -> Y+4
;	y22 -> Y+2
;	s -> Y+1
;	c -> Y+0
;	x1 -> Y+9
;	y1 -> Y+7
;	x2 -> Y+5
;	y2 -> Y+3
;	l -> Y+2
;	s -> Y+1
;	c -> Y+0
;	x1 -> Y+9
;	y1 -> Y+7
;	x2 -> Y+5
;	y2 -> Y+3
;	l -> Y+2
;	s -> Y+1
;	c -> Y+0
;	x11 -> Y+18
;	y11 -> Y+16
;	x12 -> Y+14
;	y12 -> Y+12
;	l1 -> Y+11
;	x21 -> Y+9
;	y21 -> Y+7
;	x22 -> Y+5
;	y22 -> Y+3
;	l2 -> Y+2
;	s -> Y+1
;	c -> Y+0
;	x11 -> Y+18
;	y11 -> Y+16
;	x12 -> Y+14
;	y12 -> Y+12
;	l1 -> Y+11
;	x21 -> Y+9
;	y21 -> Y+7
;	x22 -> Y+5
;	y22 -> Y+3
;	l2 -> Y+2
;	s -> Y+1
;	c -> Y+0
;	x0 -> Y+10
;	y0 -> Y+8
;	r -> Y+6
;	s -> Y+5
;	c -> Y+4
;	i -> R17
;	y -> R16
;	y00 -> R19
_putIt:
; .FSTART _putIt
	ST   -Y,R27
	ST   -Y,R26
	ST   -Y,R17
;	c -> Y+5
;	x -> Y+3
;	y -> Y+1
;	i -> R17
	LDD  R26,Y+3
	LDD  R27,Y+3+1
	RCALL _goto_col
	LDD  R26,Y+1
	LDD  R27,Y+1+1
	RCALL _goto_row
	LDI  R17,LOW(0)
_0x7B:
	CPI  R17,8
	BRSH _0x7C
	LDD  R30,Y+5
	LDD  R31,Y+5+1
	CALL SUBOPT_0x10
	LPM  R26,Z
	RCALL _glcd_write
	SUBI R17,-1
	RJMP _0x7B
_0x7C:
	LDD  R17,Y+0
	RJMP _0x20A0003
; .FEND
_enlarge:
; .FSTART _enlarge
	ST   -Y,R26
	CALL __SAVELOCR4
;	*large -> Y+6
;	c -> Y+5
;	size -> Y+4
;	i -> R17
;	j -> R16
;	temp -> R19
;	k -> R18
	LDI  R18,0
	LDI  R17,LOW(0)
_0x7E:
	LDD  R30,Y+4
	CP   R17,R30
	BRSH _0x7F
	LDI  R16,LOW(0)
_0x81:
	CPI  R16,8
	BRSH _0x82
	CALL SUBOPT_0x11
	LSR  R30
	ST   X,R30
	LDD  R30,Y+5
	ANDI R30,LOW(0x1)
	MOV  R19,R30
	CPI  R19,0
	BREQ _0x83
	CALL SUBOPT_0x11
	ORI  R30,0x80
	ST   X,R30
_0x83:
	SUBI R18,-LOW(1)
	LDD  R30,Y+4
	CP   R30,R18
	BRNE _0x84
	LDD  R30,Y+5
	LSR  R30
	STD  Y+5,R30
	LDI  R18,LOW(0)
_0x84:
	SUBI R16,-1
	RJMP _0x81
_0x82:
	SUBI R17,-1
	RJMP _0x7E
_0x7F:
	CALL __LOADLOCR4
	ADIW R28,8
	RET
; .FEND
_putItSz:
; .FSTART _putItSz
	ST   -Y,R26
	SBIW R28,63
	SBIW R28,1
	CALL __SAVELOCR4
;	c -> Y+73
;	x -> Y+71
;	y -> Y+69
;	sz -> Y+68
;	i -> R17
;	j -> R16
;	k -> R19
;	large -> Y+4
	CALL SUBOPT_0x12
	RCALL _goto_col
	__GETW2SX 69
	RCALL _goto_row
	LDI  R17,LOW(0)
_0x86:
	CPI  R17,8
	BRSH _0x87
	CALL SUBOPT_0x13
	ADD  R30,R26
	ADC  R31,R27
	ST   -Y,R31
	ST   -Y,R30
	__GETW1SX 75
	CALL SUBOPT_0x10
	LPM  R30,Z
	ST   -Y,R30
	__GETB2SX 71
	RCALL _enlarge
	SUBI R17,-1
	RJMP _0x86
_0x87:
	LDI  R16,LOW(0)
_0x89:
	__GETB1SX 68
	CP   R16,R30
	BRLO PC+2
	RJMP _0x8A
	LDI  R17,LOW(0)
_0x8C:
	CPI  R17,8
	BRSH _0x8D
	LDI  R19,LOW(0)
_0x8F:
	__GETB1SX 68
	CP   R19,R30
	BRSH _0x90
	MOV  R30,R19
	LDI  R31,0
	CALL SUBOPT_0x12
	ADD  R30,R26
	ADC  R31,R27
	MOVW R22,R30
	__GETB2SX 68
	CLR  R27
	MOV  R30,R17
	LDI  R31,0
	CALL __MULW12
	MOVW R26,R22
	ADD  R26,R30
	ADC  R27,R31
	CPI  R26,LOW(0x40)
	LDI  R30,HIGH(0x40)
	CPC  R27,R30
	BRNE _0x91
	LDI  R30,LOW(64)
	LDI  R31,HIGH(64)
	ST   -Y,R31
	ST   -Y,R30
	CALL SUBOPT_0x12
	RCALL _goto_xy
_0x91:
	CALL SUBOPT_0x13
	ADD  R26,R30
	ADC  R27,R31
	CLR  R30
	ADD  R26,R16
	ADC  R27,R30
	LD   R26,X
	RCALL _glcd_write
	SUBI R19,-1
	RJMP _0x8F
_0x90:
	SUBI R17,-1
	RJMP _0x8C
_0x8D:
	__GETW1SX 71
	ST   -Y,R31
	ST   -Y,R30
	MOVW R26,R28
	SUBI R26,LOW(-(71))
	SBCI R27,HIGH(-(71))
	CALL SUBOPT_0x14
	MOVW R26,R30
	RCALL _goto_xy
	SUBI R16,-1
	RJMP _0x89
_0x8A:
	CALL __LOADLOCR4
	ADIW R28,63
	ADIW R28,12
	RET
; .FEND
_glcd_putchar:
; .FSTART _glcd_putchar
	ST   -Y,R26
;	c -> Y+6
;	x -> Y+4
;	y -> Y+2
;	l -> Y+1
;	sz -> Y+0
	LDD  R26,Y+1
	CPI  R26,LOW(0x1)
	BREQ PC+2
	RJMP _0x92
	LDD  R30,Y+6
	LDI  R31,0
	CPI  R30,LOW(0x81)
	LDI  R26,HIGH(0x81)
	CPC  R31,R26
	BRNE _0x96
	LDI  R30,LOW(250)
	RJMP _0xD2
_0x96:
	CPI  R30,LOW(0x90)
	LDI  R26,HIGH(0x90)
	CPC  R31,R26
	BRNE _0x97
	LDI  R30,LOW(251)
	RJMP _0xD2
_0x97:
	CPI  R30,LOW(0x98)
	LDI  R26,HIGH(0x98)
	CPC  R31,R26
	BRNE _0x98
	LDI  R30,LOW(252)
	RJMP _0xD2
_0x98:
	CPI  R30,LOW(0x8E)
	LDI  R26,HIGH(0x8E)
	CPC  R31,R26
	BRNE _0x99
	LDI  R30,LOW(253)
	RJMP _0xD2
_0x99:
	CPI  R30,LOW(0x8D)
	LDI  R26,HIGH(0x8D)
	CPC  R31,R26
	BRNE _0x95
	LDI  R30,LOW(254)
_0xD2:
	STD  Y+6,R30
_0x95:
	LDD  R26,Y+6
	CPI  R26,LOW(0xC1)
	BRLO _0x9C
	LDS  R26,_prevLet_G000
	LDS  R27,_prevLet_G000+1
	CPI  R26,LOW(0xC1)
	LDI  R30,HIGH(0xC1)
	CPC  R27,R30
	BRLT _0x9C
	CALL SUBOPT_0x15
	ADIW R30,5
	LPM  R30,Z
	CPI  R30,0
	BREQ _0x9C
	CALL SUBOPT_0x16
	ADIW R30,4
	LPM  R30,Z
	CPI  R30,0
	BRNE _0x9D
_0x9C:
	RJMP _0x9B
_0x9D:
	CALL SUBOPT_0x15
	MOVW R26,R30
	LDS  R30,_stat_G000
	LDI  R31,0
	ADIW R30,1
	ADD  R30,R26
	ADC  R31,R27
	LPM  R30,Z
	LDI  R31,0
	ST   -Y,R31
	ST   -Y,R30
	LDS  R30,_prevX_G000
	LDI  R31,0
	ST   -Y,R31
	ST   -Y,R30
	LDS  R26,_prevY_G000
	CLR  R27
	RCALL _putIt
	LDI  R30,LOW(2)
	RJMP _0xD3
_0x9B:
	LDI  R30,LOW(0)
_0xD3:
	STS  _stat_G000,R30
	LDD  R26,Y+6
	CPI  R26,LOW(0xC1)
	BRLO _0x9F
	CALL SUBOPT_0x16
	MOVW R26,R30
	LDS  R30,_stat_G000
	LDI  R31,0
	ADD  R30,R26
	ADC  R31,R27
	LPM  R30,Z
	RJMP _0xD4
_0x9F:
	LDD  R30,Y+6
_0xD4:
	LDI  R31,0
	CALL SUBOPT_0x17
	CALL SUBOPT_0x17
	ST   -Y,R31
	ST   -Y,R30
	LDD  R26,Y+6
	RCALL _putItSz
	LDD  R30,Y+6
	LDI  R31,0
	STS  _prevLet_G000,R30
	STS  _prevLet_G000+1,R31
	LDD  R30,Y+4
	STS  _prevX_G000,R30
	LDD  R30,Y+2
	STS  _prevY_G000,R30
	RJMP _0xA1
_0x92:
	LDD  R30,Y+6
	LDI  R31,0
	CALL SUBOPT_0x17
	CALL SUBOPT_0x17
	ST   -Y,R31
	ST   -Y,R30
	LDD  R26,Y+6
	RCALL _putItSz
_0xA1:
_0x20A0003:
	ADIW R28,7
	RET
; .FEND
_glcd_puts:
; .FSTART _glcd_puts
	ST   -Y,R26
	ST   -Y,R17
	ST   -Y,R16
;	*c -> Y+9
;	x -> Y+7
;	y -> Y+5
;	l -> Y+4
;	sz -> Y+3
;	space -> Y+2
;	i -> R17
;	special -> R16
	LDI  R17,0
	LDI  R16,0
_0xA2:
	CALL SUBOPT_0x18
	BRSH _0xA5
	LDD  R26,Y+4
	CPI  R26,LOW(0x0)
	BREQ _0xA6
_0xA5:
	RJMP _0xA4
_0xA6:
	CALL SUBOPT_0x19
	LD   R30,X
	ST   -Y,R30
	CALL SUBOPT_0x3
	CALL SUBOPT_0x3
	LDI  R30,LOW(0)
	CALL SUBOPT_0x1A
	CALL SUBOPT_0x1B
	LDD  R26,Y+7
	LDD  R27,Y+7+1
	ADD  R30,R26
	ADC  R31,R27
	STD  Y+7,R30
	STD  Y+7+1,R31
	CALL SUBOPT_0x1C
	LDI  R26,LOW(128)
	LDI  R27,HIGH(128)
	CALL __SWAPW12
	SUB  R30,R26
	SBC  R31,R27
	LDD  R26,Y+7
	LDD  R27,Y+7+1
	CP   R30,R26
	CPC  R31,R27
	BRGE _0xA7
	LDI  R30,LOW(0)
	STD  Y+7,R30
	STD  Y+7+1,R30
	CALL SUBOPT_0x1D
_0xA7:
	SUBI R17,-1
	RJMP _0xA2
_0xA4:
_0xA8:
	CALL SUBOPT_0x18
	BRSH _0xAB
	LDD  R26,Y+4
	CPI  R26,LOW(0x1)
	BREQ _0xAC
_0xAB:
	RJMP _0xAA
_0xAC:
	CALL SUBOPT_0x19
	LD   R26,X
	CPI  R26,LOW(0xE1)
	BRNE _0xAE
	CALL SUBOPT_0x1E
	CPI  R26,LOW(0xC7)
	BREQ _0xAF
_0xAE:
	RJMP _0xAD
_0xAF:
	LDI  R16,LOW(249)
	RJMP _0xB0
_0xAD:
	CALL SUBOPT_0x19
	LD   R26,X
	CPI  R26,LOW(0xE1)
	BRNE _0xB2
	CALL SUBOPT_0x1E
	CPI  R26,LOW(0xC3)
	BREQ _0xB3
_0xB2:
	RJMP _0xB1
_0xB3:
	LDI  R16,LOW(231)
	RJMP _0xB4
_0xB1:
	CALL SUBOPT_0x19
	LD   R26,X
	CPI  R26,LOW(0xE1)
	BRNE _0xB6
	CALL SUBOPT_0x1E
	CPI  R26,LOW(0xC2)
	BREQ _0xB7
_0xB6:
	RJMP _0xB5
_0xB7:
	LDI  R16,LOW(232)
	RJMP _0xB8
_0xB5:
	CALL SUBOPT_0x19
	LD   R26,X
	CPI  R26,LOW(0xE1)
	BRNE _0xBA
	CALL SUBOPT_0x1E
	CPI  R26,LOW(0xC5)
	BREQ _0xBB
_0xBA:
	RJMP _0xB9
_0xBB:
	LDI  R16,LOW(233)
_0xB9:
_0xB8:
_0xB4:
_0xB0:
	CPI  R16,0
	BREQ _0xBC
	ST   -Y,R16
	CALL SUBOPT_0x1F
	LDI  R30,LOW(1)
	CALL SUBOPT_0x1A
	SUBI R17,-LOW(2)
	CALL SUBOPT_0x1C
	LDD  R26,Y+7
	LDD  R27,Y+7+1
	CALL SUBOPT_0x20
	LDI  R16,LOW(0)
	RJMP _0xBD
_0xBC:
	CALL SUBOPT_0x19
	LD   R30,X
	ST   -Y,R30
	CALL SUBOPT_0x1F
	LDD  R30,Y+9
	CALL SUBOPT_0x1A
	CALL SUBOPT_0x19
	LD   R26,X
	CPI  R26,LOW(0x20)
	BRNE _0xBE
	CALL SUBOPT_0x1B
	RJMP _0xD5
_0xBE:
	CALL SUBOPT_0x1C
_0xD5:
	LDD  R26,Y+7
	LDD  R27,Y+7+1
	CALL SUBOPT_0x20
	SUBI R17,-1
_0xBD:
	CALL SUBOPT_0x1C
	ADIW R30,1
	LDD  R26,Y+7
	LDD  R27,Y+7+1
	CP   R26,R30
	CPC  R27,R31
	BRGE _0xC0
	CALL SUBOPT_0x1C
	LDI  R26,LOW(128)
	LDI  R27,HIGH(128)
	CALL SUBOPT_0x20
	CALL SUBOPT_0x1D
_0xC0:
	RJMP _0xA8
_0xAA:
	LDI  R30,LOW(193)
	LDI  R31,HIGH(193)
	STS  _prevLet_G000,R30
	STS  _prevLet_G000+1,R31
	LDD  R17,Y+1
	LDD  R16,Y+0
	ADIW R28,11
	RET
; .FEND
_bmp_disp:
; .FSTART _bmp_disp
	ST   -Y,R27
	ST   -Y,R26
	CALL __SAVELOCR4
;	*bmp -> Y+12
;	x1 -> Y+10
;	y1 -> Y+8
;	x2 -> Y+6
;	y2 -> Y+4
;	i -> R16,R17
;	j -> R18,R19
	__GETWRS 16,17,8
_0xC2:
	LDD  R30,Y+4
	LDD  R31,Y+4+1
	CP   R30,R16
	CPC  R31,R17
	BRLO _0xC3
	__GETWRS 18,19,10
_0xC5:
	LDD  R30,Y+6
	LDD  R31,Y+6+1
	CP   R30,R18
	CPC  R31,R19
	BRLO _0xC6
	ST   -Y,R19
	ST   -Y,R18
	MOVW R26,R16
	RCALL _goto_xy
	__MULBNWRU 16,17,128
	ADD  R30,R18
	ADC  R31,R19
	LDD  R26,Y+12
	LDD  R27,Y+12+1
	ADD  R30,R26
	ADC  R31,R27
	LPM  R26,Z
	RCALL _glcd_write
	__ADDWRN 18,19,1
	RJMP _0xC5
_0xC6:
	__ADDWRN 16,17,1
	RJMP _0xC2
_0xC3:
	CALL __LOADLOCR4
	ADIW R28,14
	RET
; .FEND
;
;
;flash unsigned char clock[]=
;{
;    0x00,0x00,0x00,0x00,0x00,0x00,0x00,0x00,0x00,0x00,0x00,0x80,0x80,0x40,0x20,0x20,0x90,0x88,
;    0x08,0x00,0x04,0x04,0x02,0x02,0x02,0x02,0x01,0x01,0x01,0x01,0x01,0xF9,0x01,0x01,0x01,0x01,
;    0x01,0x01,0x02,0x02,0x02,0x02,0x04,0x04,0x80,0xC8,0x08,0x10,0x20,0x20,0x40,0x80,0x80,0x00,
;    0x00,0x00,0x00,0x00,0x00,0x00,0x00,0x00,0x00,0x00,0x00,0x00,0x00,0x00,0x00,0x00,0x00,0x00,
;    0x00,0x00,0x00,0x00,0x00,0x00,0x00,0x00,0x00,0x00,0x00,0x00,0x00,0x00,0x00,0x00,0x00,0x00,
;    0x00,0x00,0x00,0x00,0x00,0x00,0x00,0x00,0x00,0x00,0x00,0x00,0x00,0x00,0x00,0x00,0x00,0x00,
;    0x00,0x00,0x00,0x00,0x00,0x00,0x00,0x00,0x00,0x00,0x00,0x00,0x00,0x00,0x00,0x00,0x00,0x00,
;    0x00,0x00,0x00,0x00,0x00,0x00,0x00,0xC0,0x20,0x18,0x0C,0x02,0x01,0x01,0x00,0x00,0x00,0x00,
;    0x00,0x01,0x06,0x08,0x00,0x00,0x00,0x00,0x00,0x00,0x00,0x00,0x00,0x00,0x00,0x01,0x00,0x00,
;    0x00,0x00,0x00,0x00,0x00,0x00,0x00,0x00,0x00,0x06,0x03,0x00,0x00,0x00,0x00,0x00,0x00,0x00,
;    0x01,0x01,0x02,0x0C,0x18,0x20,0xC0,0x00,0x00,0x00,0x00,0x00,0x00,0x00,0x00,0x00,0x00,0x00,
;    0x00,0x00,0x00,0x00,0x00,0x00,0x00,0x00,0x00,0x00,0x00,0x00,0x00,0x00,0x00,0x00,0x00,0x00,
;    0x00,0x00,0x00,0x00,0x00,0x00,0x00,0x00,0x00,0x00,0x00,0x00,0x00,0x00,0x00,0x00,0x00,0x00,
;    0x00,0x00,0x00,0x00,0x00,0x00,0x00,0x00,0x00,0x00,0x00,0x00,0x00,0x00,0x00,0x00,0x00,0x00,
;    0x00,0x00,0x00,0x00,0x00,0xC0,0x30,0x06,0x01,0x00,0x06,0x04,0x0C,0x08,0x10,0x10,0x00,0x00,
;    0x00,0x00,0x00,0x00,0x00,0x00,0x00,0x00,0x00,0x00,0x00,0x00,0x00,0x00,0x00,0x00,0x00,0x00,
;    0x00,0x00,0x00,0x00,0x00,0x00,0x00,0x00,0x00,0x00,0x00,0x00,0x00,0x00,0x00,0x00,0x00,0x00,
;    0x00,0x08,0x08,0x04,0x04,0x02,0x02,0x00,0x00,0x01,0x06,0x38,0xC0,0x00,0x00,0x00,0x00,0x00,
;    0x00,0x00,0x00,0x00,0x00,0x00,0x00,0x00,0x00,0x00,0x00,0x00,0x00,0x00,0x00,0x00,0x00,0x00,
;    0x00,0x00,0x00,0x00,0x00,0x00,0x00,0x00,0x00,0x00,0x00,0x00,0x00,0x00,0x00,0x00,0x00,0x00,
;    0x00,0x00,0x00,0x00,0x00,0x00,0x00,0x00,0x00,0x00,0x00,0x00,0x00,0x00,0x00,0x00,0x00,0x00,
;    0x00,0x00,0x00,0x00,0x00,0x00,0xFC,0x03,0x00,0x00,0x00,0x00,0x00,0x00,0x00,0x00,0x00,0x00,
;    0x00,0x00,0x00,0x00,0x00,0x00,0x00,0x00,0x00,0x00,0x00,0x00,0x00,0x00,0x00,0x00,0x00,0x00,
;    0x00,0x00,0x00,0x00,0x00,0x00,0x00,0x00,0x00,0x00,0x00,0x00,0x00,0x00,0x00,0x00,0x00,0x00,
;    0x00,0x00,0x00,0x00,0x00,0x00,0x00,0x80,0x80,0x80,0x80,0x80,0x80,0x00,0x03,0xFC,0x00,0x00,
;    0x00,0x00,0x00,0x00,0x00,0x00,0x00,0x00,0x00,0x00,0x00,0x00,0x00,0x00,0x00,0x00,0x00,0x00,
;    0x00,0x00,0x00,0x00,0x00,0x00,0x00,0x00,0x00,0x00,0x00,0x00,0x00,0x00,0x00,0x00,0x00,0x00,
;    0x00,0x00,0x00,0x00,0x00,0x00,0x00,0x00,0x00,0x00,0x00,0x00,0x00,0x00,0x00,0x00,0x00,0x00,
;    0x00,0x00,0x00,0x00,0x00,0x00,0x00,0x00,0x3F,0xC0,0x01,0x01,0x01,0x01,0x01,0x01,0x01,0x00,
;    0x00,0x00,0x00,0x00,0x00,0x00,0x00,0x00,0x00,0x00,0x00,0x00,0x00,0x00,0x00,0x00,0x00,0x00,
;    0x00,0x00,0x00,0x00,0x00,0x00,0x00,0x00,0x00,0x00,0x00,0x00,0x00,0x00,0x00,0x00,0x00,0x00,
;    0x00,0x00,0x00,0x00,0x00,0x00,0x00,0x00,0x00,0x00,0x00,0x00,0x00,0x00,0x00,0x00,0xC0,0x3F,
;    0x00,0x00,0x00,0x00,0x00,0x00,0x00,0x00,0x00,0x00,0x00,0x00,0x00,0x00,0x00,0x00,0x00,0x00,
;    0x00,0x00,0x00,0x00,0x00,0x00,0x00,0x00,0x00,0x00,0x00,0x00,0x00,0x00,0x00,0x00,0x00,0x00,
;    0x00,0x00,0x00,0x00,0x00,0x00,0x00,0x00,0x00,0x00,0x00,0x00,0x00,0x00,0x00,0x00,0x00,0x00,
;    0x00,0x00,0x00,0x00,0x00,0x00,0x00,0x00,0x00,0x00,0x00,0x03,0x0C,0x60,0x80,0x00,0x00,0x40,
;    0x60,0x20,0x10,0x18,0x00,0x00,0x00,0x00,0x00,0x00,0x00,0x00,0x00,0x00,0x00,0x00,0x00,0x00,
;    0x00,0x00,0x00,0x00,0x00,0x00,0x00,0x00,0x00,0x00,0x00,0x00,0x00,0x00,0x00,0x00,0x00,0x00,
;    0x00,0x00,0x00,0x00,0x00,0x00,0x00,0x00,0x08,0x08,0x10,0x30,0x20,0x00,0x00,0x80,0x60,0x1C,
;    0x03,0x00,0x00,0x00,0x00,0x00,0x00,0x00,0x00,0x00,0x00,0x00,0x00,0x00,0x00,0x00,0x00,0x00,
;    0x00,0x00,0x00,0x00,0x00,0x00,0x00,0x00,0x00,0x00,0x00,0x00,0x00,0x00,0x00,0x00,0x00,0x00,
;    0x00,0x00,0x00,0x00,0x00,0x00,0x00,0x00,0x00,0x00,0x00,0x00,0x00,0x00,0x00,0x00,0x00,0x00,
;    0x00,0x00,0x00,0x00,0x00,0x00,0x00,0x00,0x00,0x00,0x00,0x00,0x00,0x00,0x00,0x00,0x00,0x03,
;    0x04,0x18,0x30,0x40,0x80,0x80,0x00,0x00,0x00,0x00,0x00,0x00,0x80,0xE0,0x30,0x00,0x00,0x00,
;    0x00,0x00,0x00,0x00,0x00,0x00,0x00,0x00,0x80,0x00,0x00,0x00,0x00,0x00,0x00,0x00,0x00,0x00,
;    0x00,0x00,0x30,0xC0,0x80,0x00,0x00,0x00,0x00,0x00,0x80,0x80,0x40,0x30,0x18,0x04,0x03,0x00,
;    0x00,0x00,0x00,0x00,0x00,0x00,0x00,0x00,0x00,0x00,0x00,0x00,0x00,0x00,0x00,0x00,0x00,0x00,
;    0x00,0x00,0x00,0x00,0x00,0x00,0x00,0x00,0x00,0x00,0x00,0x00,0x00,0x00,0x00,0x00,0x00,0x00,
;    0x00,0x00,0x00,0x00,0x00,0x00,0x00,0x00,0x00,0x00,0x00,0x00,0x00,0x00,0x00,0x00,0x00,0x00,
;    0x00,0x00,0x00,0x00,0x00,0x00,0x00,0x00,0x00,0x00,0x00,0x00,0x00,0x00,0x00,0x00,0x00,0x00,
;    0x00,0x00,0x00,0x00,0x00,0x00,0x00,0x01,0x01,0x02,0x04,0x04,0x08,0x12,0x11,0x20,0x20,0x20,
;    0x40,0x40,0x40,0x40,0x80,0x80,0x80,0x80,0x80,0x80,0x9F,0x80,0x80,0x80,0x80,0x80,0x40,0x40,
;    0x40,0x40,0x20,0x20,0x20,0x10,0x11,0x08,0x04,0x04,0x02,0x01,0x01,0x00,0x00,0x00,0x00,0x00,
;    0x00,0x00,0x00,0x00,0x00,0x00,0x00,0x00,0x00,0x00,0x00,0x00,0x00,0x00,0x00,0x00,0x00,0x00,
;    0x00,0x00,0x00,0x00,0x00,0x00,0x00,0x00,0x00,0x00,0x00,0x00,0x00,0x00,0x00,0x00,0x00,0x00,
;    0x00,0x00,0x00,0x00,0x00,0x00,0x00,0x00,0x00,0x00,0x00,0x00,0x00,0x00,0x00,0x00,0x00,0x00,
;    0x00,0x00,0x00,0x00,0x00,0x00,0x00,0x00,0x00,0x00,0x00,0x00,0x00,0x00,0x00,0x00
;};
;
;
;unsigned char str[10];
;
;long int i = 0;
;
;interrupt [TIM0_OVF] void timer0_ovf_isr(void)
; 0000 004A {
_timer0_ovf_isr:
; .FSTART _timer0_ovf_isr
	ST   -Y,R22
	ST   -Y,R23
	ST   -Y,R26
	ST   -Y,R27
	ST   -Y,R30
	ST   -Y,R31
	IN   R30,SREG
	ST   -Y,R30
; 0000 004B      i++;
	LDI  R26,LOW(_i)
	LDI  R27,HIGH(_i)
	CALL __GETD1P_INC
	__SUBD1N -1
	CALL __PUTDP1_DEC
; 0000 004C }
	LD   R30,Y+
	OUT  SREG,R30
	LD   R31,Y+
	LD   R30,Y+
	LD   R27,Y+
	LD   R26,Y+
	LD   R23,Y+
	LD   R22,Y+
	RETI
; .FEND
;
;void main(void)
; 0000 004F {
_main:
; .FSTART _main
; 0000 0050     int hour = 10, min = 35, sec = 30, Rh = 15, Rs = 23, Rm = 20;
; 0000 0051     float Xh = 0, Yh = 0, Xs = 0, Ys = 0, Xm, Ym, H;
; 0000 0052     H = hour + (min/60.0);
	SBIW R28,34
	LDI  R24,22
	LDI  R26,LOW(12)
	LDI  R27,HIGH(12)
	LDI  R30,LOW(_0xC7*2)
	LDI  R31,HIGH(_0xC7*2)
	CALL __INITLOCB
;	hour -> R16,R17
;	min -> R18,R19
;	sec -> R20,R21
;	Rh -> Y+32
;	Rs -> Y+30
;	Rm -> Y+28
;	Xh -> Y+24
;	Yh -> Y+20
;	Xs -> Y+16
;	Ys -> Y+12
;	Xm -> Y+8
;	Ym -> Y+4
;	H -> Y+0
	__GETWRN 16,17,10
	__GETWRN 18,19,35
	__GETWRN 20,21,30
	MOVW R30,R18
	CALL SUBOPT_0x8
	CALL SUBOPT_0x21
	MOVW R26,R16
	CALL SUBOPT_0x22
	CALL __ADDF12
	CALL __PUTD1S0
; 0000 0053 
; 0000 0054     DDRA=(1<<DDA7) | (1<<DDA6) | (1<<DDA5) | (1<<DDA4) | (1<<DDA3) | (1<<DDA2) | (1<<DDA1) | (1<<DDA0);
	LDI  R30,LOW(255)
	OUT  0x1A,R30
; 0000 0055     DDRC=(0<<DDC7) | (0<<DDC6) | (0<<DDC5) | (0<<DDC4) | (0<<DDC3) | (0<<DDC2) | (0<<DDC1) | (0<<DDC0);
	LDI  R30,LOW(0)
	OUT  0x14,R30
; 0000 0056 
; 0000 0057     // Timer/Counter 0 initialization
; 0000 0058     // Clock source: System Clock
; 0000 0059     // Clock value: 1000/000 kHz
; 0000 005A     // Mode: Normal top=0xFF
; 0000 005B     // OC0 output: Disconnected
; 0000 005C     // Timer Period: 0/256 ms
; 0000 005D     TCCR0=(0<<WGM00) | (0<<COM01) | (0<<COM00) | (0<<WGM01) | (0<<CS02) | (0<<CS01) | (1<<CS00);
	LDI  R30,LOW(1)
	OUT  0x33,R30
; 0000 005E     TIMSK=(0<<OCIE2) | (0<<TOIE2) | (0<<TICIE1) | (0<<OCIE1A) | (0<<OCIE1B) | (0<<TOIE1) | (0<<OCIE0) | (1<<TOIE0);
	OUT  0x39,R30
; 0000 005F     ACSR=(1<<ACD) | (0<<ACBG) | (0<<ACO) | (0<<ACI) | (0<<ACIE) | (0<<ACIC) | (0<<ACIS1) | (0<<ACIS0);
	LDI  R30,LOW(128)
	OUT  0x8,R30
; 0000 0060     TCNT0=0x00;
	LDI  R30,LOW(0)
	OUT  0x32,R30
; 0000 0061     OCR0=0x00;
	OUT  0x3C,R30
; 0000 0062 
; 0000 0063     glcd_on();
	RCALL _glcd_on
; 0000 0064     glcd_clear();
	RCALL _glcd_clear
; 0000 0065     bmp_disp(clock, 0, 0, 127, 7);
	LDI  R30,LOW(_clock*2)
	LDI  R31,HIGH(_clock*2)
	ST   -Y,R31
	ST   -Y,R30
	CALL SUBOPT_0x0
	CALL SUBOPT_0x0
	LDI  R30,LOW(127)
	LDI  R31,HIGH(127)
	ST   -Y,R31
	ST   -Y,R30
	LDI  R26,LOW(7)
	LDI  R27,0
	RCALL _bmp_disp
; 0000 0066     point_at(32, 32, 1);
	CALL SUBOPT_0x23
	CALL SUBOPT_0x23
	LDI  R26,LOW(1)
	RCALL _point_at
; 0000 0067 
; 0000 0068     #asm("sei")
	sei
; 0000 0069 
; 0000 006A     while (1)
_0xC8:
; 0000 006B     {
; 0000 006C         if(i*256 + TCNT0>=999999)
	LDS  R30,_i
	LDS  R31,_i+1
	LDS  R22,_i+2
	LDS  R23,_i+3
	__GETD2N 0x100
	CALL __MULD12
	MOVW R26,R30
	MOVW R24,R22
	IN   R30,0x32
	LDI  R31,0
	CALL __CWD1
	CALL __ADDD21
	__CPD2N 0xF423F
	BRGE PC+2
	RJMP _0xCB
; 0000 006D         {
; 0000 006E             line(32, 32, Xs, Ys, 0, 0);
	CALL SUBOPT_0x23
	CALL SUBOPT_0x23
	CALL SUBOPT_0x24
	LDI  R26,LOW(0)
	RCALL _line
; 0000 006F             sec++;
	__ADDWRN 20,21,1
; 0000 0070             i = 0;
	LDI  R30,LOW(0)
	STS  _i,R30
	STS  _i+1,R30
	STS  _i+2,R30
	STS  _i+3,R30
; 0000 0071             TCNT0 = 0;
	OUT  0x32,R30
; 0000 0072             Xh = Rh*cos((3-H)*2*3.1415/12)+32;
	CALL SUBOPT_0x25
	CALL _cos
	LDD  R26,Y+32
	LDD  R27,Y+32+1
	CALL SUBOPT_0x26
	__PUTD1S 24
; 0000 0073             Yh=-Rh*sin((3-H)*2*3.1415/12)+32;
	LDD  R30,Y+32
	LDD  R31,Y+32+1
	CALL __ANEGW1
	PUSH R31
	PUSH R30
	CALL SUBOPT_0x25
	CALL _sin
	POP  R26
	POP  R27
	CALL SUBOPT_0x26
	__PUTD1S 20
; 0000 0074             line(32,32,Xh,Yh,0,1);
	CALL SUBOPT_0x23
	CALL SUBOPT_0x23
	CALL SUBOPT_0x27
	LDI  R26,LOW(1)
	RCALL _line
; 0000 0075             Xm=Rm*cos((15-min)*2*3.1415/60)+32;
	CALL SUBOPT_0x28
	MOVW R26,R30
	MOVW R24,R22
	CALL _cos
	LDD  R26,Y+28
	LDD  R27,Y+28+1
	CALL SUBOPT_0x26
	__PUTD1S 8
; 0000 0076             Ym=-Rm*sin((15-min)*2*3.1415/60)+32;
	LDD  R30,Y+28
	LDD  R31,Y+28+1
	CALL __ANEGW1
	PUSH R31
	PUSH R30
	CALL SUBOPT_0x28
	CALL SUBOPT_0x29
	POP  R26
	POP  R27
	CALL SUBOPT_0x26
	__PUTD1S 4
; 0000 0077             line(32,32,Xm,Ym,0,1);
	CALL SUBOPT_0x23
	CALL SUBOPT_0x23
	CALL SUBOPT_0x2A
	LDI  R26,LOW(1)
	RCALL _line
; 0000 0078             Xs=(Rs*cos((15-sec)*2*3.1415/60))+32;
	CALL SUBOPT_0x2B
	MOVW R26,R30
	MOVW R24,R22
	CALL _cos
	LDD  R26,Y+30
	LDD  R27,Y+30+1
	CALL SUBOPT_0x26
	__PUTD1S 16
; 0000 0079             Ys=-Rs*sin((15-sec)*2*3.1415/60)+32;
	LDD  R30,Y+30
	LDD  R31,Y+30+1
	CALL __ANEGW1
	PUSH R31
	PUSH R30
	CALL SUBOPT_0x2B
	CALL SUBOPT_0x29
	POP  R26
	POP  R27
	CALL SUBOPT_0x26
	__PUTD1S 12
; 0000 007A             line(32,32,Xs,Ys,0,1);
	CALL SUBOPT_0x23
	CALL SUBOPT_0x23
	CALL SUBOPT_0x24
	LDI  R26,LOW(1)
	RCALL _line
; 0000 007B             sprintf(str,"%02d:%02d:%02d",hour,min,sec);
	LDI  R30,LOW(_str)
	LDI  R31,HIGH(_str)
	ST   -Y,R31
	ST   -Y,R30
	__POINTW1FN _0x0,0
	ST   -Y,R31
	ST   -Y,R30
	MOVW R30,R16
	CALL SUBOPT_0x2C
	MOVW R30,R18
	CALL SUBOPT_0x2C
	MOVW R30,R20
	CALL SUBOPT_0x2C
	LDI  R24,12
	CALL _sprintf
	ADIW R28,16
; 0000 007C             glcd_puts(str,60,7,0,1,0);
	LDI  R30,LOW(_str)
	LDI  R31,HIGH(_str)
	ST   -Y,R31
	ST   -Y,R30
	LDI  R30,LOW(60)
	LDI  R31,HIGH(60)
	ST   -Y,R31
	ST   -Y,R30
	LDI  R30,LOW(7)
	LDI  R31,HIGH(7)
	ST   -Y,R31
	ST   -Y,R30
	LDI  R30,LOW(0)
	ST   -Y,R30
	LDI  R30,LOW(1)
	ST   -Y,R30
	LDI  R26,LOW(0)
	RCALL _glcd_puts
; 0000 007D 
; 0000 007E 
; 0000 007F             if(sec == 59)
	LDI  R30,LOW(59)
	LDI  R31,HIGH(59)
	CP   R30,R20
	CPC  R31,R21
	BRNE _0xCC
; 0000 0080             {
; 0000 0081                 sec = 0;
	__GETWRN 20,21,0
; 0000 0082                 min++;
	__ADDWRN 18,19,1
; 0000 0083                 line(32,32,Xm,Ym,0,0);
	CALL SUBOPT_0x23
	CALL SUBOPT_0x23
	CALL SUBOPT_0x2A
	LDI  R26,LOW(0)
	RCALL _line
; 0000 0084                 if(min == 59)
	LDI  R30,LOW(59)
	LDI  R31,HIGH(59)
	CP   R30,R18
	CPC  R31,R19
	BRNE _0xCD
; 0000 0085                 {
; 0000 0086                     min = 0;
	__GETWRN 18,19,0
; 0000 0087                     hour++;
	__ADDWRN 16,17,1
; 0000 0088                     line(32, 32, Xh, Yh, 0, 0);
	CALL SUBOPT_0x23
	CALL SUBOPT_0x23
	CALL SUBOPT_0x27
	LDI  R26,LOW(0)
	RCALL _line
; 0000 0089                     if(hour == 24)
	LDI  R30,LOW(24)
	LDI  R31,HIGH(24)
	CP   R30,R16
	CPC  R31,R17
	BRNE _0xCE
; 0000 008A                         hour = min = sec = 0;
	LDI  R30,LOW(0)
	LDI  R31,HIGH(0)
	MOVW R20,R30
	MOVW R18,R30
	MOVW R16,R30
; 0000 008B                 }
_0xCE:
; 0000 008C             }
_0xCD:
; 0000 008D         }
_0xCC:
; 0000 008E     }//End While()
_0xCB:
	RJMP _0xC8
; 0000 008F }//End Main()
_0xCF:
	RJMP _0xCF
; .FEND
;
;
;
;
	#ifndef __SLEEP_DEFINED__
	#define __SLEEP_DEFINED__
	.EQU __se_bit=0x80
	.EQU __sm_mask=0x70
	.EQU __sm_powerdown=0x20
	.EQU __sm_powersave=0x30
	.EQU __sm_standby=0x60
	.EQU __sm_ext_standby=0x70
	.EQU __sm_adc_noise_red=0x10
	.SET power_ctrl_reg=mcucr
	#endif

	.CSEG
_put_buff_G100:
; .FSTART _put_buff_G100
	ST   -Y,R27
	ST   -Y,R26
	ST   -Y,R17
	ST   -Y,R16
	LDD  R26,Y+2
	LDD  R27,Y+2+1
	ADIW R26,2
	CALL __GETW1P
	SBIW R30,0
	BREQ _0x2000010
	LDD  R26,Y+2
	LDD  R27,Y+2+1
	ADIW R26,4
	CALL __GETW1P
	MOVW R16,R30
	SBIW R30,0
	BREQ _0x2000012
	__CPWRN 16,17,2
	BRLO _0x2000013
	MOVW R30,R16
	SBIW R30,1
	MOVW R16,R30
	__PUTW1SNS 2,4
_0x2000012:
	LDD  R26,Y+2
	LDD  R27,Y+2+1
	ADIW R26,2
	CALL SUBOPT_0x14
	SBIW R30,1
	LDD  R26,Y+4
	STD  Z+0,R26
_0x2000013:
	LDD  R26,Y+2
	LDD  R27,Y+2+1
	CALL __GETW1P
	TST  R31
	BRMI _0x2000014
	CALL SUBOPT_0x14
_0x2000014:
	RJMP _0x2000015
_0x2000010:
	LDD  R26,Y+2
	LDD  R27,Y+2+1
	LDI  R30,LOW(65535)
	LDI  R31,HIGH(65535)
	ST   X+,R30
	ST   X,R31
_0x2000015:
	LDD  R17,Y+1
	LDD  R16,Y+0
	ADIW R28,5
	RET
; .FEND
__print_G100:
; .FSTART __print_G100
	ST   -Y,R27
	ST   -Y,R26
	SBIW R28,6
	CALL __SAVELOCR6
	LDI  R17,0
	LDD  R26,Y+12
	LDD  R27,Y+12+1
	LDI  R30,LOW(0)
	LDI  R31,HIGH(0)
	ST   X+,R30
	ST   X,R31
_0x2000016:
	LDD  R30,Y+18
	LDD  R31,Y+18+1
	ADIW R30,1
	STD  Y+18,R30
	STD  Y+18+1,R31
	SBIW R30,1
	LPM  R30,Z
	MOV  R18,R30
	CPI  R30,0
	BRNE PC+2
	RJMP _0x2000018
	MOV  R30,R17
	CPI  R30,0
	BRNE _0x200001C
	CPI  R18,37
	BRNE _0x200001D
	LDI  R17,LOW(1)
	RJMP _0x200001E
_0x200001D:
	CALL SUBOPT_0x2D
_0x200001E:
	RJMP _0x200001B
_0x200001C:
	CPI  R30,LOW(0x1)
	BRNE _0x200001F
	CPI  R18,37
	BRNE _0x2000020
	CALL SUBOPT_0x2D
	RJMP _0x20000CC
_0x2000020:
	LDI  R17,LOW(2)
	LDI  R20,LOW(0)
	LDI  R16,LOW(0)
	CPI  R18,45
	BRNE _0x2000021
	LDI  R16,LOW(1)
	RJMP _0x200001B
_0x2000021:
	CPI  R18,43
	BRNE _0x2000022
	LDI  R20,LOW(43)
	RJMP _0x200001B
_0x2000022:
	CPI  R18,32
	BRNE _0x2000023
	LDI  R20,LOW(32)
	RJMP _0x200001B
_0x2000023:
	RJMP _0x2000024
_0x200001F:
	CPI  R30,LOW(0x2)
	BRNE _0x2000025
_0x2000024:
	LDI  R21,LOW(0)
	LDI  R17,LOW(3)
	CPI  R18,48
	BRNE _0x2000026
	ORI  R16,LOW(128)
	RJMP _0x200001B
_0x2000026:
	RJMP _0x2000027
_0x2000025:
	CPI  R30,LOW(0x3)
	BREQ PC+2
	RJMP _0x200001B
_0x2000027:
	CPI  R18,48
	BRLO _0x200002A
	CPI  R18,58
	BRLO _0x200002B
_0x200002A:
	RJMP _0x2000029
_0x200002B:
	LDI  R26,LOW(10)
	MUL  R21,R26
	MOV  R21,R0
	MOV  R30,R18
	SUBI R30,LOW(48)
	ADD  R21,R30
	RJMP _0x200001B
_0x2000029:
	MOV  R30,R18
	CPI  R30,LOW(0x63)
	BRNE _0x200002F
	CALL SUBOPT_0x2E
	LDD  R30,Y+16
	LDD  R31,Y+16+1
	LDD  R26,Z+4
	ST   -Y,R26
	CALL SUBOPT_0x2F
	RJMP _0x2000030
_0x200002F:
	CPI  R30,LOW(0x73)
	BRNE _0x2000032
	CALL SUBOPT_0x2E
	CALL SUBOPT_0x30
	CALL _strlen
	MOV  R17,R30
	RJMP _0x2000033
_0x2000032:
	CPI  R30,LOW(0x70)
	BRNE _0x2000035
	CALL SUBOPT_0x2E
	CALL SUBOPT_0x30
	CALL _strlenf
	MOV  R17,R30
	ORI  R16,LOW(8)
_0x2000033:
	ORI  R16,LOW(2)
	ANDI R16,LOW(127)
	LDI  R19,LOW(0)
	RJMP _0x2000036
_0x2000035:
	CPI  R30,LOW(0x64)
	BREQ _0x2000039
	CPI  R30,LOW(0x69)
	BRNE _0x200003A
_0x2000039:
	ORI  R16,LOW(4)
	RJMP _0x200003B
_0x200003A:
	CPI  R30,LOW(0x75)
	BRNE _0x200003C
_0x200003B:
	LDI  R30,LOW(_tbl10_G100*2)
	LDI  R31,HIGH(_tbl10_G100*2)
	STD  Y+6,R30
	STD  Y+6+1,R31
	LDI  R17,LOW(5)
	RJMP _0x200003D
_0x200003C:
	CPI  R30,LOW(0x58)
	BRNE _0x200003F
	ORI  R16,LOW(8)
	RJMP _0x2000040
_0x200003F:
	CPI  R30,LOW(0x78)
	BREQ PC+2
	RJMP _0x2000071
_0x2000040:
	LDI  R30,LOW(_tbl16_G100*2)
	LDI  R31,HIGH(_tbl16_G100*2)
	STD  Y+6,R30
	STD  Y+6+1,R31
	LDI  R17,LOW(4)
_0x200003D:
	SBRS R16,2
	RJMP _0x2000042
	CALL SUBOPT_0x2E
	CALL SUBOPT_0x31
	LDD  R26,Y+11
	TST  R26
	BRPL _0x2000043
	LDD  R30,Y+10
	LDD  R31,Y+10+1
	CALL __ANEGW1
	STD  Y+10,R30
	STD  Y+10+1,R31
	LDI  R20,LOW(45)
_0x2000043:
	CPI  R20,0
	BREQ _0x2000044
	SUBI R17,-LOW(1)
	RJMP _0x2000045
_0x2000044:
	ANDI R16,LOW(251)
_0x2000045:
	RJMP _0x2000046
_0x2000042:
	CALL SUBOPT_0x2E
	CALL SUBOPT_0x31
_0x2000046:
_0x2000036:
	SBRC R16,0
	RJMP _0x2000047
_0x2000048:
	CP   R17,R21
	BRSH _0x200004A
	SBRS R16,7
	RJMP _0x200004B
	SBRS R16,2
	RJMP _0x200004C
	ANDI R16,LOW(251)
	MOV  R18,R20
	SUBI R17,LOW(1)
	RJMP _0x200004D
_0x200004C:
	LDI  R18,LOW(48)
_0x200004D:
	RJMP _0x200004E
_0x200004B:
	LDI  R18,LOW(32)
_0x200004E:
	CALL SUBOPT_0x2D
	SUBI R21,LOW(1)
	RJMP _0x2000048
_0x200004A:
_0x2000047:
	MOV  R19,R17
	SBRS R16,1
	RJMP _0x200004F
_0x2000050:
	CPI  R19,0
	BREQ _0x2000052
	SBRS R16,3
	RJMP _0x2000053
	LDD  R30,Y+6
	LDD  R31,Y+6+1
	LPM  R18,Z+
	STD  Y+6,R30
	STD  Y+6+1,R31
	RJMP _0x2000054
_0x2000053:
	LDD  R26,Y+6
	LDD  R27,Y+6+1
	LD   R18,X+
	STD  Y+6,R26
	STD  Y+6+1,R27
_0x2000054:
	CALL SUBOPT_0x2D
	CPI  R21,0
	BREQ _0x2000055
	SUBI R21,LOW(1)
_0x2000055:
	SUBI R19,LOW(1)
	RJMP _0x2000050
_0x2000052:
	RJMP _0x2000056
_0x200004F:
_0x2000058:
	LDI  R18,LOW(48)
	LDD  R30,Y+6
	LDD  R31,Y+6+1
	CALL __GETW1PF
	STD  Y+8,R30
	STD  Y+8+1,R31
	LDD  R30,Y+6
	LDD  R31,Y+6+1
	ADIW R30,2
	STD  Y+6,R30
	STD  Y+6+1,R31
_0x200005A:
	LDD  R30,Y+8
	LDD  R31,Y+8+1
	LDD  R26,Y+10
	LDD  R27,Y+10+1
	CP   R26,R30
	CPC  R27,R31
	BRLO _0x200005C
	SUBI R18,-LOW(1)
	LDD  R26,Y+8
	LDD  R27,Y+8+1
	LDD  R30,Y+10
	LDD  R31,Y+10+1
	SUB  R30,R26
	SBC  R31,R27
	STD  Y+10,R30
	STD  Y+10+1,R31
	RJMP _0x200005A
_0x200005C:
	CPI  R18,58
	BRLO _0x200005D
	SBRS R16,3
	RJMP _0x200005E
	SUBI R18,-LOW(7)
	RJMP _0x200005F
_0x200005E:
	SUBI R18,-LOW(39)
_0x200005F:
_0x200005D:
	SBRC R16,4
	RJMP _0x2000061
	CPI  R18,49
	BRSH _0x2000063
	LDD  R26,Y+8
	LDD  R27,Y+8+1
	SBIW R26,1
	BRNE _0x2000062
_0x2000063:
	RJMP _0x20000CD
_0x2000062:
	CP   R21,R19
	BRLO _0x2000067
	SBRS R16,0
	RJMP _0x2000068
_0x2000067:
	RJMP _0x2000066
_0x2000068:
	LDI  R18,LOW(32)
	SBRS R16,7
	RJMP _0x2000069
	LDI  R18,LOW(48)
_0x20000CD:
	ORI  R16,LOW(16)
	SBRS R16,2
	RJMP _0x200006A
	ANDI R16,LOW(251)
	ST   -Y,R20
	CALL SUBOPT_0x2F
	CPI  R21,0
	BREQ _0x200006B
	SUBI R21,LOW(1)
_0x200006B:
_0x200006A:
_0x2000069:
_0x2000061:
	CALL SUBOPT_0x2D
	CPI  R21,0
	BREQ _0x200006C
	SUBI R21,LOW(1)
_0x200006C:
_0x2000066:
	SUBI R19,LOW(1)
	LDD  R26,Y+8
	LDD  R27,Y+8+1
	SBIW R26,2
	BRLO _0x2000059
	RJMP _0x2000058
_0x2000059:
_0x2000056:
	SBRS R16,0
	RJMP _0x200006D
_0x200006E:
	CPI  R21,0
	BREQ _0x2000070
	SUBI R21,LOW(1)
	LDI  R30,LOW(32)
	ST   -Y,R30
	CALL SUBOPT_0x2F
	RJMP _0x200006E
_0x2000070:
_0x200006D:
_0x2000071:
_0x2000030:
_0x20000CC:
	LDI  R17,LOW(0)
_0x200001B:
	RJMP _0x2000016
_0x2000018:
	LDD  R26,Y+12
	LDD  R27,Y+12+1
	CALL __GETW1P
	CALL __LOADLOCR6
	ADIW R28,20
	RET
; .FEND
_sprintf:
; .FSTART _sprintf
	PUSH R15
	MOV  R15,R24
	SBIW R28,6
	CALL __SAVELOCR4
	CALL SUBOPT_0x32
	SBIW R30,0
	BRNE _0x2000072
	LDI  R30,LOW(65535)
	LDI  R31,HIGH(65535)
	RJMP _0x20A0002
_0x2000072:
	MOVW R26,R28
	ADIW R26,6
	CALL __ADDW2R15
	MOVW R16,R26
	CALL SUBOPT_0x32
	STD  Y+6,R30
	STD  Y+6+1,R31
	LDI  R30,LOW(0)
	STD  Y+8,R30
	STD  Y+8+1,R30
	MOVW R26,R28
	ADIW R26,10
	CALL __ADDW2R15
	CALL __GETW1P
	ST   -Y,R31
	ST   -Y,R30
	ST   -Y,R17
	ST   -Y,R16
	LDI  R30,LOW(_put_buff_G100)
	LDI  R31,HIGH(_put_buff_G100)
	ST   -Y,R31
	ST   -Y,R30
	MOVW R26,R28
	ADIW R26,10
	RCALL __print_G100
	MOVW R18,R30
	LDD  R26,Y+6
	LDD  R27,Y+6+1
	LDI  R30,LOW(0)
	ST   X,R30
	MOVW R30,R18
_0x20A0002:
	CALL __LOADLOCR4
	ADIW R28,10
	POP  R15
	RET
; .FEND

	.CSEG
_abs:
; .FSTART _abs
	ST   -Y,R27
	ST   -Y,R26
    ld   r30,y+
    ld   r31,y+
    sbiw r30,0
    brpl __abs0
    com  r30
    com  r31
    adiw r30,1
__abs0:
    ret
; .FEND

	.DSEG

	.CSEG

	.CSEG
_min:
; .FSTART _min
	ST   -Y,R27
	ST   -Y,R26
    ld   r26,y+
    ld   r27,y+
    ld   r30,y+
    ld   r31,y+
    cp   r30,r26
    cpc  r31,r27
    brlt __min0
    movw r30,r26
__min0:
    ret
; .FEND
_ftrunc:
; .FSTART _ftrunc
	CALL __PUTPARD2
   ldd  r23,y+3
   ldd  r22,y+2
   ldd  r31,y+1
   ld   r30,y
   bst  r23,7
   lsl  r23
   sbrc r22,7
   sbr  r23,1
   mov  r25,r23
   subi r25,0x7e
   breq __ftrunc0
   brcs __ftrunc0
   cpi  r25,24
   brsh __ftrunc1
   clr  r26
   clr  r27
   clr  r24
__ftrunc2:
   sec
   ror  r24
   ror  r27
   ror  r26
   dec  r25
   brne __ftrunc2
   and  r30,r26
   and  r31,r27
   and  r22,r24
   rjmp __ftrunc1
__ftrunc0:
   clt
   clr  r23
   clr  r30
   clr  r31
   clr  r22
__ftrunc1:
   cbr  r22,0x80
   lsr  r23
   brcc __ftrunc3
   sbr  r22,0x80
__ftrunc3:
   bld  r23,7
   ld   r26,y+
   ld   r27,y+
   ld   r24,y+
   ld   r25,y+
   cp   r30,r26
   cpc  r31,r27
   cpc  r22,r24
   cpc  r23,r25
   bst  r25,7
   ret
; .FEND
_floor:
; .FSTART _floor
	CALL SUBOPT_0x33
	CALL _ftrunc
	CALL __PUTD1S0
    brne __floor1
__floor0:
	CALL __GETD1S0
	RJMP _0x20A0001
__floor1:
    brtc __floor0
	CALL __GETD1S0
	__GETD2N 0x3F800000
	CALL __SUBF12
	RJMP _0x20A0001
; .FEND
_sin:
; .FSTART _sin
	CALL __PUTPARD2
	SBIW R28,4
	ST   -Y,R17
	LDI  R17,0
	CALL SUBOPT_0x34
	__GETD1N 0x3E22F983
	CALL __MULF12
	CALL SUBOPT_0x35
	RCALL _floor
	CALL SUBOPT_0x34
	CALL SUBOPT_0xB
	CALL SUBOPT_0x35
	__GETD1N 0x3F000000
	CALL __CMPF12
	BREQ PC+2
	BRCC PC+2
	RJMP _0x2040017
	CALL SUBOPT_0x36
	__GETD2N 0x3F000000
	CALL SUBOPT_0x37
	LDI  R17,LOW(1)
_0x2040017:
	CALL SUBOPT_0x34
	__GETD1N 0x3E800000
	CALL __CMPF12
	BREQ PC+2
	BRCC PC+2
	RJMP _0x2040018
	CALL SUBOPT_0x34
	__GETD1N 0x3F000000
	CALL SUBOPT_0x37
_0x2040018:
	CPI  R17,0
	BREQ _0x2040019
	CALL SUBOPT_0x36
	CALL __ANEGF1
	__PUTD1S 5
_0x2040019:
	CALL SUBOPT_0x36
	CALL SUBOPT_0x34
	CALL __MULF12
	__PUTD1S 1
	__GETD2N 0x4226C4B1
	CALL __MULF12
	MOVW R26,R30
	MOVW R24,R22
	__GETD1N 0x422DE51D
	CALL SUBOPT_0xB
	CALL SUBOPT_0x38
	__GETD2N 0x4104534C
	CALL __ADDF12
	CALL SUBOPT_0x34
	CALL __MULF12
	PUSH R23
	PUSH R22
	PUSH R31
	PUSH R30
	__GETD1S 1
	__GETD2N 0x3FDEED11
	CALL __ADDF12
	CALL SUBOPT_0x38
	__GETD2N 0x3FA87B5E
	CALL __ADDF12
	POP  R26
	POP  R27
	POP  R24
	POP  R25
	CALL __DIVF21
	LDD  R17,Y+0
	ADIW R28,9
	RET
; .FEND
_cos:
; .FSTART _cos
	CALL SUBOPT_0x33
	__GETD1N 0x3FC90FDB
	CALL __SUBF12
	CALL SUBOPT_0x29
_0x20A0001:
	ADIW R28,4
	RET
; .FEND

	.CSEG
_strlen:
; .FSTART _strlen
	ST   -Y,R27
	ST   -Y,R26
    ld   r26,y+
    ld   r27,y+
    clr  r30
    clr  r31
strlen0:
    ld   r22,x+
    tst  r22
    breq strlen1
    adiw r30,1
    rjmp strlen0
strlen1:
    ret
; .FEND
_strlenf:
; .FSTART _strlenf
	ST   -Y,R27
	ST   -Y,R26
    clr  r26
    clr  r27
    ld   r30,y+
    ld   r31,y+
strlenf0:
	lpm  r0,z+
    tst  r0
    breq strlenf1
    adiw r26,1
    rjmp strlenf0
strlenf1:
    movw r30,r26
    ret
; .FEND

	.CSEG

	.DSEG
_prevLet_G000:
	.BYTE 0x2
_stat_G000:
	.BYTE 0x1
_prevX_G000:
	.BYTE 0x1
_prevY_G000:
	.BYTE 0x1
_str:
	.BYTE 0xA
_i:
	.BYTE 0x4
__seed_G101:
	.BYTE 0x4

	.CSEG
;OPTIMIZER ADDED SUBROUTINE, CALLED 3 TIMES, CODE SIZE REDUCTION:1 WORDS
SUBOPT_0x0:
	LDI  R30,LOW(0)
	LDI  R31,HIGH(0)
	ST   -Y,R31
	ST   -Y,R30
	RET

;OPTIMIZER ADDED SUBROUTINE, CALLED 2 TIMES, CODE SIZE REDUCTION:6 WORDS
SUBOPT_0x1:
	LDD  R30,Y+4
	LDD  R31,Y+4+1
	ST   -Y,R31
	ST   -Y,R30
	LDD  R30,Y+4
	LDD  R31,Y+4+1
	CALL __LSRW3
	MOVW R26,R30
	JMP  _goto_xy

;OPTIMIZER ADDED SUBROUTINE, CALLED 2 TIMES, CODE SIZE REDUCTION:2 WORDS
SUBOPT_0x2:
	LDD  R30,Y+3
	LDI  R31,0
	ADIW R30,1
	LDI  R31,0
	LDI  R31,0
	__ADDWRR 16,17,30,31
	RET

;OPTIMIZER ADDED SUBROUTINE, CALLED 5 TIMES, CODE SIZE REDUCTION:5 WORDS
SUBOPT_0x3:
	LDD  R30,Y+8
	LDD  R31,Y+8+1
	ST   -Y,R31
	ST   -Y,R30
	RET

;OPTIMIZER ADDED SUBROUTINE, CALLED 2 TIMES, CODE SIZE REDUCTION:1 WORDS
SUBOPT_0x4:
	LDD  R30,Y+18
	LDD  R31,Y+18+1
	LDD  R26,Y+22
	LDD  R27,Y+22+1
	CP   R30,R26
	CPC  R31,R27
	RET

;OPTIMIZER ADDED SUBROUTINE, CALLED 6 TIMES, CODE SIZE REDUCTION:7 WORDS
SUBOPT_0x5:
	LDD  R30,Y+22
	LDD  R31,Y+22+1
	ST   -Y,R31
	ST   -Y,R30
	RET

;OPTIMIZER ADDED SUBROUTINE, CALLED 2 TIMES, CODE SIZE REDUCTION:1 WORDS
SUBOPT_0x6:
	LDD  R26,Y+20
	LDD  R27,Y+20+1
	CALL _min
	ST   -Y,R31
	ST   -Y,R30
	RET

;OPTIMIZER ADDED SUBROUTINE, CALLED 3 TIMES, CODE SIZE REDUCTION:1 WORDS
SUBOPT_0x7:
	ST   -Y,R30
	LDD  R26,Y+20
	JMP  _h_line

;OPTIMIZER ADDED SUBROUTINE, CALLED 7 TIMES, CODE SIZE REDUCTION:9 WORDS
SUBOPT_0x8:
	CALL __CWD1
	CALL __CDF1
	RET

;OPTIMIZER ADDED SUBROUTINE, CALLED 3 TIMES, CODE SIZE REDUCTION:1 WORDS
SUBOPT_0x9:
	CLR  R22
	CLR  R23
	CALL __CDF1
	RET

;OPTIMIZER ADDED SUBROUTINE, CALLED 2 TIMES, CODE SIZE REDUCTION:5 WORDS
SUBOPT_0xA:
	LDD  R30,Y+22
	LDD  R31,Y+22+1
	__GETD2S 10
	RCALL SUBOPT_0x9
	CALL __MULF12
	RET

;OPTIMIZER ADDED SUBROUTINE, CALLED 3 TIMES, CODE SIZE REDUCTION:1 WORDS
SUBOPT_0xB:
	CALL __SWAPD12
	CALL __SUBF12
	RET

;OPTIMIZER ADDED SUBROUTINE, CALLED 2 TIMES, CODE SIZE REDUCTION:1 WORDS
SUBOPT_0xC:
	__GETD2S 6
	CALL __ADDF12
	RET

;OPTIMIZER ADDED SUBROUTINE, CALLED 2 TIMES, CODE SIZE REDUCTION:1 WORDS
SUBOPT_0xD:
	LDD  R30,Y+18
	LDD  R31,Y+18+1
	MOV  R26,R17
	LDI  R27,0
	CP   R30,R26
	CPC  R31,R27
	RET

;OPTIMIZER ADDED SUBROUTINE, CALLED 2 TIMES, CODE SIZE REDUCTION:2 WORDS
SUBOPT_0xE:
	LDI  R31,0
	CALL __SWAPW12
	SUB  R30,R26
	SBC  R31,R27
	LDI  R31,0
	CPI  R30,LOW(0x2)
	RET

;OPTIMIZER ADDED SUBROUTINE, CALLED 2 TIMES, CODE SIZE REDUCTION:1 WORDS
SUBOPT_0xF:
	LDI  R31,0
	ADIW R30,1
	LDI  R31,0
	LDI  R31,0
	ST   -Y,R31
	ST   -Y,R30
	RET

;OPTIMIZER ADDED SUBROUTINE, CALLED 2 TIMES, CODE SIZE REDUCTION:4 WORDS
SUBOPT_0x10:
	CALL __LSLW3
	MOVW R26,R30
	MOV  R30,R17
	LDI  R31,0
	ADD  R30,R26
	ADC  R31,R27
	SUBI R30,LOW(-_font*2)
	SBCI R31,HIGH(-_font*2)
	RET

;OPTIMIZER ADDED SUBROUTINE, CALLED 2 TIMES, CODE SIZE REDUCTION:1 WORDS
SUBOPT_0x11:
	LDD  R26,Y+6
	LDD  R27,Y+6+1
	CLR  R30
	ADD  R26,R17
	ADC  R27,R30
	LD   R30,X
	RET

;OPTIMIZER ADDED SUBROUTINE, CALLED 3 TIMES, CODE SIZE REDUCTION:5 WORDS
SUBOPT_0x12:
	__GETW2SX 71
	RET

;OPTIMIZER ADDED SUBROUTINE, CALLED 2 TIMES, CODE SIZE REDUCTION:1 WORDS
SUBOPT_0x13:
	MOV  R30,R17
	LDI  R31,0
	CALL __LSLW3
	MOVW R26,R28
	ADIW R26,4
	RET

;OPTIMIZER ADDED SUBROUTINE, CALLED 3 TIMES, CODE SIZE REDUCTION:3 WORDS
SUBOPT_0x14:
	LD   R30,X+
	LD   R31,X+
	ADIW R30,1
	ST   -X,R31
	ST   -X,R30
	RET

;OPTIMIZER ADDED SUBROUTINE, CALLED 2 TIMES, CODE SIZE REDUCTION:7 WORDS
SUBOPT_0x15:
	LDS  R30,_prevLet_G000
	LDS  R31,_prevLet_G000+1
	SUBI R30,LOW(193)
	SBCI R31,HIGH(193)
	LDI  R26,LOW(6)
	LDI  R27,HIGH(6)
	CALL __MULW12U
	SUBI R30,LOW(-_map*2)
	SBCI R31,HIGH(-_map*2)
	RET

;OPTIMIZER ADDED SUBROUTINE, CALLED 2 TIMES, CODE SIZE REDUCTION:5 WORDS
SUBOPT_0x16:
	LDD  R30,Y+6
	LDI  R31,0
	SUBI R30,LOW(193)
	SBCI R31,HIGH(193)
	LDI  R26,LOW(6)
	LDI  R27,HIGH(6)
	CALL __MULW12U
	SUBI R30,LOW(-_map*2)
	SBCI R31,HIGH(-_map*2)
	RET

;OPTIMIZER ADDED SUBROUTINE, CALLED 4 TIMES, CODE SIZE REDUCTION:3 WORDS
SUBOPT_0x17:
	ST   -Y,R31
	ST   -Y,R30
	LDD  R30,Y+6
	LDD  R31,Y+6+1
	RET

;OPTIMIZER ADDED SUBROUTINE, CALLED 2 TIMES, CODE SIZE REDUCTION:3 WORDS
SUBOPT_0x18:
	LDD  R26,Y+9
	LDD  R27,Y+9+1
	CALL _strlen
	MOV  R26,R17
	LDI  R27,0
	CP   R26,R30
	CPC  R27,R31
	RET

;OPTIMIZER ADDED SUBROUTINE, CALLED 7 TIMES, CODE SIZE REDUCTION:21 WORDS
SUBOPT_0x19:
	MOV  R30,R17
	LDI  R31,0
	LDD  R26,Y+9
	LDD  R27,Y+9+1
	ADD  R26,R30
	ADC  R27,R31
	RET

;OPTIMIZER ADDED SUBROUTINE, CALLED 3 TIMES, CODE SIZE REDUCTION:1 WORDS
SUBOPT_0x1A:
	ST   -Y,R30
	LDD  R26,Y+9
	JMP  _glcd_putchar

;OPTIMIZER ADDED SUBROUTINE, CALLED 2 TIMES, CODE SIZE REDUCTION:5 WORDS
SUBOPT_0x1B:
	LDD  R30,Y+2
	LDI  R31,0
	SBRC R30,7
	SER  R31
	ADIW R30,8
	MOVW R26,R30
	LDD  R30,Y+3
	LDI  R31,0
	CALL __MULW12
	RET

;OPTIMIZER ADDED SUBROUTINE, CALLED 5 TIMES, CODE SIZE REDUCTION:5 WORDS
SUBOPT_0x1C:
	LDD  R30,Y+3
	LDI  R26,LOW(8)
	MUL  R30,R26
	MOVW R30,R0
	RET

;OPTIMIZER ADDED SUBROUTINE, CALLED 2 TIMES, CODE SIZE REDUCTION:3 WORDS
SUBOPT_0x1D:
	LDD  R30,Y+3
	LDI  R31,0
	LDD  R26,Y+5
	LDD  R27,Y+5+1
	ADD  R30,R26
	ADC  R31,R27
	STD  Y+5,R30
	STD  Y+5+1,R31
	RET

;OPTIMIZER ADDED SUBROUTINE, CALLED 4 TIMES, CODE SIZE REDUCTION:12 WORDS
SUBOPT_0x1E:
	MOV  R30,R17
	LDI  R31,0
	LDD  R26,Y+9
	LDD  R27,Y+9+1
	ADD  R30,R26
	ADC  R31,R27
	LDD  R26,Z+1
	RET

;OPTIMIZER ADDED SUBROUTINE, CALLED 2 TIMES, CODE SIZE REDUCTION:7 WORDS
SUBOPT_0x1F:
	LDD  R30,Y+4
	LDI  R26,LOW(8)
	MUL  R30,R26
	MOVW R30,R0
	LDD  R26,Y+8
	LDD  R27,Y+8+1
	SUB  R26,R30
	SBC  R27,R31
	ST   -Y,R27
	ST   -Y,R26
	RJMP SUBOPT_0x3

;OPTIMIZER ADDED SUBROUTINE, CALLED 3 TIMES, CODE SIZE REDUCTION:1 WORDS
SUBOPT_0x20:
	SUB  R26,R30
	SBC  R27,R31
	STD  Y+7,R26
	STD  Y+7+1,R27
	RET

;OPTIMIZER ADDED SUBROUTINE, CALLED 5 TIMES, CODE SIZE REDUCTION:21 WORDS
SUBOPT_0x21:
	MOVW R26,R30
	MOVW R24,R22
	__GETD1N 0x42700000
	CALL __DIVF21
	RET

;OPTIMIZER ADDED SUBROUTINE, CALLED 7 TIMES, CODE SIZE REDUCTION:9 WORDS
SUBOPT_0x22:
	CALL __CWD2
	CALL __CDF2
	RET

;OPTIMIZER ADDED SUBROUTINE, CALLED 14 TIMES, CODE SIZE REDUCTION:23 WORDS
SUBOPT_0x23:
	LDI  R30,LOW(32)
	LDI  R31,HIGH(32)
	ST   -Y,R31
	ST   -Y,R30
	RET

;OPTIMIZER ADDED SUBROUTINE, CALLED 2 TIMES, CODE SIZE REDUCTION:13 WORDS
SUBOPT_0x24:
	__GETD1S 20
	CALL __CFD1U
	ST   -Y,R31
	ST   -Y,R30
	__GETD1S 18
	CALL __CFD1U
	ST   -Y,R31
	ST   -Y,R30
	LDI  R30,LOW(0)
	ST   -Y,R30
	RET

;OPTIMIZER ADDED SUBROUTINE, CALLED 2 TIMES, CODE SIZE REDUCTION:27 WORDS
SUBOPT_0x25:
	CALL __GETD2S0
	__GETD1N 0x40400000
	CALL __SUBF12
	__GETD2N 0x40000000
	CALL __MULF12
	__GETD2N 0x40490E56
	CALL __MULF12
	MOVW R26,R30
	MOVW R24,R22
	__GETD1N 0x41400000
	CALL __DIVF21
	MOVW R26,R30
	MOVW R24,R22
	RET

;OPTIMIZER ADDED SUBROUTINE, CALLED 6 TIMES, CODE SIZE REDUCTION:37 WORDS
SUBOPT_0x26:
	RCALL SUBOPT_0x22
	CALL __MULF12
	__GETD2N 0x42000000
	CALL __ADDF12
	RET

;OPTIMIZER ADDED SUBROUTINE, CALLED 2 TIMES, CODE SIZE REDUCTION:13 WORDS
SUBOPT_0x27:
	__GETD1S 28
	CALL __CFD1U
	ST   -Y,R31
	ST   -Y,R30
	__GETD1S 26
	CALL __CFD1U
	ST   -Y,R31
	ST   -Y,R30
	LDI  R30,LOW(0)
	ST   -Y,R30
	RET

;OPTIMIZER ADDED SUBROUTINE, CALLED 2 TIMES, CODE SIZE REDUCTION:11 WORDS
SUBOPT_0x28:
	LDI  R30,LOW(15)
	LDI  R31,HIGH(15)
	SUB  R30,R18
	SBC  R31,R19
	LSL  R30
	ROL  R31
	RCALL SUBOPT_0x8
	__GETD2N 0x40490E56
	CALL __MULF12
	RJMP SUBOPT_0x21

;OPTIMIZER ADDED SUBROUTINE, CALLED 3 TIMES, CODE SIZE REDUCTION:1 WORDS
SUBOPT_0x29:
	MOVW R26,R30
	MOVW R24,R22
	JMP  _sin

;OPTIMIZER ADDED SUBROUTINE, CALLED 2 TIMES, CODE SIZE REDUCTION:13 WORDS
SUBOPT_0x2A:
	__GETD1S 12
	CALL __CFD1U
	ST   -Y,R31
	ST   -Y,R30
	__GETD1S 10
	CALL __CFD1U
	ST   -Y,R31
	ST   -Y,R30
	LDI  R30,LOW(0)
	ST   -Y,R30
	RET

;OPTIMIZER ADDED SUBROUTINE, CALLED 2 TIMES, CODE SIZE REDUCTION:11 WORDS
SUBOPT_0x2B:
	LDI  R30,LOW(15)
	LDI  R31,HIGH(15)
	SUB  R30,R20
	SBC  R31,R21
	LSL  R30
	ROL  R31
	RCALL SUBOPT_0x8
	__GETD2N 0x40490E56
	CALL __MULF12
	RJMP SUBOPT_0x21

;OPTIMIZER ADDED SUBROUTINE, CALLED 3 TIMES, CODE SIZE REDUCTION:1 WORDS
SUBOPT_0x2C:
	CALL __CWD1
	CALL __PUTPARD1
	RET

;OPTIMIZER ADDED SUBROUTINE, CALLED 5 TIMES, CODE SIZE REDUCTION:13 WORDS
SUBOPT_0x2D:
	ST   -Y,R18
	LDD  R26,Y+13
	LDD  R27,Y+13+1
	LDD  R30,Y+15
	LDD  R31,Y+15+1
	ICALL
	RET

;OPTIMIZER ADDED SUBROUTINE, CALLED 5 TIMES, CODE SIZE REDUCTION:9 WORDS
SUBOPT_0x2E:
	LDD  R30,Y+16
	LDD  R31,Y+16+1
	SBIW R30,4
	STD  Y+16,R30
	STD  Y+16+1,R31
	RET

;OPTIMIZER ADDED SUBROUTINE, CALLED 3 TIMES, CODE SIZE REDUCTION:3 WORDS
SUBOPT_0x2F:
	LDD  R26,Y+13
	LDD  R27,Y+13+1
	LDD  R30,Y+15
	LDD  R31,Y+15+1
	ICALL
	RET

;OPTIMIZER ADDED SUBROUTINE, CALLED 2 TIMES, CODE SIZE REDUCTION:4 WORDS
SUBOPT_0x30:
	LDD  R26,Y+16
	LDD  R27,Y+16+1
	ADIW R26,4
	CALL __GETW1P
	STD  Y+6,R30
	STD  Y+6+1,R31
	LDD  R26,Y+6
	LDD  R27,Y+6+1
	RET

;OPTIMIZER ADDED SUBROUTINE, CALLED 2 TIMES, CODE SIZE REDUCTION:2 WORDS
SUBOPT_0x31:
	LDD  R26,Y+16
	LDD  R27,Y+16+1
	ADIW R26,4
	CALL __GETW1P
	STD  Y+10,R30
	STD  Y+10+1,R31
	RET

;OPTIMIZER ADDED SUBROUTINE, CALLED 2 TIMES, CODE SIZE REDUCTION:1 WORDS
SUBOPT_0x32:
	MOVW R26,R28
	ADIW R26,12
	CALL __ADDW2R15
	CALL __GETW1P
	RET

;OPTIMIZER ADDED SUBROUTINE, CALLED 2 TIMES, CODE SIZE REDUCTION:1 WORDS
SUBOPT_0x33:
	CALL __PUTPARD2
	CALL __GETD2S0
	RET

;OPTIMIZER ADDED SUBROUTINE, CALLED 8 TIMES, CODE SIZE REDUCTION:11 WORDS
SUBOPT_0x34:
	__GETD2S 5
	RET

;OPTIMIZER ADDED SUBROUTINE, CALLED 2 TIMES, CODE SIZE REDUCTION:1 WORDS
SUBOPT_0x35:
	__PUTD1S 5
	RJMP SUBOPT_0x34

;OPTIMIZER ADDED SUBROUTINE, CALLED 3 TIMES, CODE SIZE REDUCTION:1 WORDS
SUBOPT_0x36:
	__GETD1S 5
	RET

;OPTIMIZER ADDED SUBROUTINE, CALLED 2 TIMES, CODE SIZE REDUCTION:1 WORDS
SUBOPT_0x37:
	CALL __SUBF12
	__PUTD1S 5
	RET

;OPTIMIZER ADDED SUBROUTINE, CALLED 2 TIMES, CODE SIZE REDUCTION:1 WORDS
SUBOPT_0x38:
	__GETD2S 1
	CALL __MULF12
	RET


	.CSEG
__ANEGF1:
	SBIW R30,0
	SBCI R22,0
	SBCI R23,0
	BREQ __ANEGF10
	SUBI R23,0x80
__ANEGF10:
	RET

__ROUND_REPACK:
	TST  R21
	BRPL __REPACK
	CPI  R21,0x80
	BRNE __ROUND_REPACK0
	SBRS R30,0
	RJMP __REPACK
__ROUND_REPACK0:
	ADIW R30,1
	ADC  R22,R25
	ADC  R23,R25
	BRVS __REPACK1

__REPACK:
	LDI  R21,0x80
	EOR  R21,R23
	BRNE __REPACK0
	PUSH R21
	RJMP __ZERORES
__REPACK0:
	CPI  R21,0xFF
	BREQ __REPACK1
	LSL  R22
	LSL  R0
	ROR  R21
	ROR  R22
	MOV  R23,R21
	RET
__REPACK1:
	PUSH R21
	TST  R0
	BRMI __REPACK2
	RJMP __MAXRES
__REPACK2:
	RJMP __MINRES

__UNPACK:
	LDI  R21,0x80
	MOV  R1,R25
	AND  R1,R21
	LSL  R24
	ROL  R25
	EOR  R25,R21
	LSL  R21
	ROR  R24

__UNPACK1:
	LDI  R21,0x80
	MOV  R0,R23
	AND  R0,R21
	LSL  R22
	ROL  R23
	EOR  R23,R21
	LSL  R21
	ROR  R22
	RET

__CFD1U:
	SET
	RJMP __CFD1U0
__CFD1:
	CLT
__CFD1U0:
	PUSH R21
	RCALL __UNPACK1
	CPI  R23,0x80
	BRLO __CFD10
	CPI  R23,0xFF
	BRCC __CFD10
	RJMP __ZERORES
__CFD10:
	LDI  R21,22
	SUB  R21,R23
	BRPL __CFD11
	NEG  R21
	CPI  R21,8
	BRTC __CFD19
	CPI  R21,9
__CFD19:
	BRLO __CFD17
	SER  R30
	SER  R31
	SER  R22
	LDI  R23,0x7F
	BLD  R23,7
	RJMP __CFD15
__CFD17:
	CLR  R23
	TST  R21
	BREQ __CFD15
__CFD18:
	LSL  R30
	ROL  R31
	ROL  R22
	ROL  R23
	DEC  R21
	BRNE __CFD18
	RJMP __CFD15
__CFD11:
	CLR  R23
__CFD12:
	CPI  R21,8
	BRLO __CFD13
	MOV  R30,R31
	MOV  R31,R22
	MOV  R22,R23
	SUBI R21,8
	RJMP __CFD12
__CFD13:
	TST  R21
	BREQ __CFD15
__CFD14:
	LSR  R23
	ROR  R22
	ROR  R31
	ROR  R30
	DEC  R21
	BRNE __CFD14
__CFD15:
	TST  R0
	BRPL __CFD16
	RCALL __ANEGD1
__CFD16:
	POP  R21
	RET

__CDF1U:
	SET
	RJMP __CDF1U0
__CDF1:
	CLT
__CDF1U0:
	SBIW R30,0
	SBCI R22,0
	SBCI R23,0
	BREQ __CDF10
	CLR  R0
	BRTS __CDF11
	TST  R23
	BRPL __CDF11
	COM  R0
	RCALL __ANEGD1
__CDF11:
	MOV  R1,R23
	LDI  R23,30
	TST  R1
__CDF12:
	BRMI __CDF13
	DEC  R23
	LSL  R30
	ROL  R31
	ROL  R22
	ROL  R1
	RJMP __CDF12
__CDF13:
	MOV  R30,R31
	MOV  R31,R22
	MOV  R22,R1
	PUSH R21
	RCALL __REPACK
	POP  R21
__CDF10:
	RET

__SWAPACC:
	PUSH R20
	MOVW R20,R30
	MOVW R30,R26
	MOVW R26,R20
	MOVW R20,R22
	MOVW R22,R24
	MOVW R24,R20
	MOV  R20,R0
	MOV  R0,R1
	MOV  R1,R20
	POP  R20
	RET

__UADD12:
	ADD  R30,R26
	ADC  R31,R27
	ADC  R22,R24
	RET

__NEGMAN1:
	COM  R30
	COM  R31
	COM  R22
	SUBI R30,-1
	SBCI R31,-1
	SBCI R22,-1
	RET

__SUBF12:
	PUSH R21
	RCALL __UNPACK
	CPI  R25,0x80
	BREQ __ADDF129
	LDI  R21,0x80
	EOR  R1,R21

	RJMP __ADDF120

__ADDF12:
	PUSH R21
	RCALL __UNPACK
	CPI  R25,0x80
	BREQ __ADDF129

__ADDF120:
	CPI  R23,0x80
	BREQ __ADDF128
__ADDF121:
	MOV  R21,R23
	SUB  R21,R25
	BRVS __ADDF1211
	BRPL __ADDF122
	RCALL __SWAPACC
	RJMP __ADDF121
__ADDF122:
	CPI  R21,24
	BRLO __ADDF123
	CLR  R26
	CLR  R27
	CLR  R24
__ADDF123:
	CPI  R21,8
	BRLO __ADDF124
	MOV  R26,R27
	MOV  R27,R24
	CLR  R24
	SUBI R21,8
	RJMP __ADDF123
__ADDF124:
	TST  R21
	BREQ __ADDF126
__ADDF125:
	LSR  R24
	ROR  R27
	ROR  R26
	DEC  R21
	BRNE __ADDF125
__ADDF126:
	MOV  R21,R0
	EOR  R21,R1
	BRMI __ADDF127
	RCALL __UADD12
	BRCC __ADDF129
	ROR  R22
	ROR  R31
	ROR  R30
	INC  R23
	BRVC __ADDF129
	RJMP __MAXRES
__ADDF128:
	RCALL __SWAPACC
__ADDF129:
	RCALL __REPACK
	POP  R21
	RET
__ADDF1211:
	BRCC __ADDF128
	RJMP __ADDF129
__ADDF127:
	SUB  R30,R26
	SBC  R31,R27
	SBC  R22,R24
	BREQ __ZERORES
	BRCC __ADDF1210
	COM  R0
	RCALL __NEGMAN1
__ADDF1210:
	TST  R22
	BRMI __ADDF129
	LSL  R30
	ROL  R31
	ROL  R22
	DEC  R23
	BRVC __ADDF1210

__ZERORES:
	CLR  R30
	CLR  R31
	CLR  R22
	CLR  R23
	POP  R21
	RET

__MINRES:
	SER  R30
	SER  R31
	LDI  R22,0x7F
	SER  R23
	POP  R21
	RET

__MAXRES:
	SER  R30
	SER  R31
	LDI  R22,0x7F
	LDI  R23,0x7F
	POP  R21
	RET

__MULF12:
	PUSH R21
	RCALL __UNPACK
	CPI  R23,0x80
	BREQ __ZERORES
	CPI  R25,0x80
	BREQ __ZERORES
	EOR  R0,R1
	SEC
	ADC  R23,R25
	BRVC __MULF124
	BRLT __ZERORES
__MULF125:
	TST  R0
	BRMI __MINRES
	RJMP __MAXRES
__MULF124:
	PUSH R0
	PUSH R17
	PUSH R18
	PUSH R19
	PUSH R20
	CLR  R17
	CLR  R18
	CLR  R25
	MUL  R22,R24
	MOVW R20,R0
	MUL  R24,R31
	MOV  R19,R0
	ADD  R20,R1
	ADC  R21,R25
	MUL  R22,R27
	ADD  R19,R0
	ADC  R20,R1
	ADC  R21,R25
	MUL  R24,R30
	RCALL __MULF126
	MUL  R27,R31
	RCALL __MULF126
	MUL  R22,R26
	RCALL __MULF126
	MUL  R27,R30
	RCALL __MULF127
	MUL  R26,R31
	RCALL __MULF127
	MUL  R26,R30
	ADD  R17,R1
	ADC  R18,R25
	ADC  R19,R25
	ADC  R20,R25
	ADC  R21,R25
	MOV  R30,R19
	MOV  R31,R20
	MOV  R22,R21
	MOV  R21,R18
	POP  R20
	POP  R19
	POP  R18
	POP  R17
	POP  R0
	TST  R22
	BRMI __MULF122
	LSL  R21
	ROL  R30
	ROL  R31
	ROL  R22
	RJMP __MULF123
__MULF122:
	INC  R23
	BRVS __MULF125
__MULF123:
	RCALL __ROUND_REPACK
	POP  R21
	RET

__MULF127:
	ADD  R17,R0
	ADC  R18,R1
	ADC  R19,R25
	RJMP __MULF128
__MULF126:
	ADD  R18,R0
	ADC  R19,R1
__MULF128:
	ADC  R20,R25
	ADC  R21,R25
	RET

__DIVF21:
	PUSH R21
	RCALL __UNPACK
	CPI  R23,0x80
	BRNE __DIVF210
	TST  R1
__DIVF211:
	BRPL __DIVF219
	RJMP __MINRES
__DIVF219:
	RJMP __MAXRES
__DIVF210:
	CPI  R25,0x80
	BRNE __DIVF218
__DIVF217:
	RJMP __ZERORES
__DIVF218:
	EOR  R0,R1
	SEC
	SBC  R25,R23
	BRVC __DIVF216
	BRLT __DIVF217
	TST  R0
	RJMP __DIVF211
__DIVF216:
	MOV  R23,R25
	PUSH R17
	PUSH R18
	PUSH R19
	PUSH R20
	CLR  R1
	CLR  R17
	CLR  R18
	CLR  R19
	CLR  R20
	CLR  R21
	LDI  R25,32
__DIVF212:
	CP   R26,R30
	CPC  R27,R31
	CPC  R24,R22
	CPC  R20,R17
	BRLO __DIVF213
	SUB  R26,R30
	SBC  R27,R31
	SBC  R24,R22
	SBC  R20,R17
	SEC
	RJMP __DIVF214
__DIVF213:
	CLC
__DIVF214:
	ROL  R21
	ROL  R18
	ROL  R19
	ROL  R1
	ROL  R26
	ROL  R27
	ROL  R24
	ROL  R20
	DEC  R25
	BRNE __DIVF212
	MOVW R30,R18
	MOV  R22,R1
	POP  R20
	POP  R19
	POP  R18
	POP  R17
	TST  R22
	BRMI __DIVF215
	LSL  R21
	ROL  R30
	ROL  R31
	ROL  R22
	DEC  R23
	BRVS __DIVF217
__DIVF215:
	RCALL __ROUND_REPACK
	POP  R21
	RET

__CMPF12:
	TST  R25
	BRMI __CMPF120
	TST  R23
	BRMI __CMPF121
	CP   R25,R23
	BRLO __CMPF122
	BRNE __CMPF121
	CP   R26,R30
	CPC  R27,R31
	CPC  R24,R22
	BRLO __CMPF122
	BREQ __CMPF123
__CMPF121:
	CLZ
	CLC
	RET
__CMPF122:
	CLZ
	SEC
	RET
__CMPF123:
	SEZ
	CLC
	RET
__CMPF120:
	TST  R23
	BRPL __CMPF122
	CP   R25,R23
	BRLO __CMPF121
	BRNE __CMPF122
	CP   R30,R26
	CPC  R31,R27
	CPC  R22,R24
	BRLO __CMPF122
	BREQ __CMPF123
	RJMP __CMPF121

__ADDW2R15:
	CLR  R0
	ADD  R26,R15
	ADC  R27,R0
	RET

__ADDD21:
	ADD  R26,R30
	ADC  R27,R31
	ADC  R24,R22
	ADC  R25,R23
	RET

__ANEGW1:
	NEG  R31
	NEG  R30
	SBCI R31,0
	RET

__ANEGD1:
	COM  R31
	COM  R22
	COM  R23
	NEG  R30
	SBCI R31,-1
	SBCI R22,-1
	SBCI R23,-1
	RET

__LSLB12:
	TST  R30
	MOV  R0,R30
	MOV  R30,R26
	BREQ __LSLB12R
__LSLB12L:
	LSL  R30
	DEC  R0
	BRNE __LSLB12L
__LSLB12R:
	RET

__LSLW3:
	LSL  R30
	ROL  R31
__LSLW2:
	LSL  R30
	ROL  R31
	LSL  R30
	ROL  R31
	RET

__LSRW3:
	LSR  R31
	ROR  R30
__LSRW2:
	LSR  R31
	ROR  R30
	LSR  R31
	ROR  R30
	RET

__CWD1:
	MOV  R22,R31
	ADD  R22,R22
	SBC  R22,R22
	MOV  R23,R22
	RET

__CWD2:
	MOV  R24,R27
	ADD  R24,R24
	SBC  R24,R24
	MOV  R25,R24
	RET

__LTB12U:
	CP   R26,R30
	LDI  R30,1
	BRLO __LTB12U1
	CLR  R30
__LTB12U1:
	RET

__MULW12U:
	MUL  R31,R26
	MOV  R31,R0
	MUL  R30,R27
	ADD  R31,R0
	MUL  R30,R26
	MOV  R30,R0
	ADD  R31,R1
	RET

__MULD12U:
	MUL  R23,R26
	MOV  R23,R0
	MUL  R22,R27
	ADD  R23,R0
	MUL  R31,R24
	ADD  R23,R0
	MUL  R30,R25
	ADD  R23,R0
	MUL  R22,R26
	MOV  R22,R0
	ADD  R23,R1
	MUL  R31,R27
	ADD  R22,R0
	ADC  R23,R1
	MUL  R30,R24
	ADD  R22,R0
	ADC  R23,R1
	CLR  R24
	MUL  R31,R26
	MOV  R31,R0
	ADD  R22,R1
	ADC  R23,R24
	MUL  R30,R27
	ADD  R31,R0
	ADC  R22,R1
	ADC  R23,R24
	MUL  R30,R26
	MOV  R30,R0
	ADD  R31,R1
	ADC  R22,R24
	ADC  R23,R24
	RET

__MULW12:
	RCALL __CHKSIGNW
	RCALL __MULW12U
	BRTC __MULW121
	RCALL __ANEGW1
__MULW121:
	RET

__MULD12:
	RCALL __CHKSIGND
	RCALL __MULD12U
	BRTC __MULD121
	RCALL __ANEGD1
__MULD121:
	RET

__CHKSIGNW:
	CLT
	SBRS R31,7
	RJMP __CHKSW1
	RCALL __ANEGW1
	SET
__CHKSW1:
	SBRS R27,7
	RJMP __CHKSW2
	COM  R26
	COM  R27
	ADIW R26,1
	BLD  R0,0
	INC  R0
	BST  R0,0
__CHKSW2:
	RET

__CHKSIGND:
	CLT
	SBRS R23,7
	RJMP __CHKSD1
	RCALL __ANEGD1
	SET
__CHKSD1:
	SBRS R25,7
	RJMP __CHKSD2
	CLR  R0
	COM  R26
	COM  R27
	COM  R24
	COM  R25
	ADIW R26,1
	ADC  R24,R0
	ADC  R25,R0
	BLD  R0,0
	INC  R0
	BST  R0,0
__CHKSD2:
	RET

__GETW1P:
	LD   R30,X+
	LD   R31,X
	SBIW R26,1
	RET

__GETD1P_INC:
	LD   R30,X+
	LD   R31,X+
	LD   R22,X+
	LD   R23,X+
	RET

__PUTDP1_DEC:
	ST   -X,R23
	ST   -X,R22
	ST   -X,R31
	ST   -X,R30
	RET

__GETW1PF:
	LPM  R0,Z+
	LPM  R31,Z
	MOV  R30,R0
	RET

__GETD1S0:
	LD   R30,Y
	LDD  R31,Y+1
	LDD  R22,Y+2
	LDD  R23,Y+3
	RET

__GETD2S0:
	LD   R26,Y
	LDD  R27,Y+1
	LDD  R24,Y+2
	LDD  R25,Y+3
	RET

__PUTD1S0:
	ST   Y,R30
	STD  Y+1,R31
	STD  Y+2,R22
	STD  Y+3,R23
	RET

__PUTPARD1:
	ST   -Y,R23
	ST   -Y,R22
	ST   -Y,R31
	ST   -Y,R30
	RET

__PUTPARD2:
	ST   -Y,R25
	ST   -Y,R24
	ST   -Y,R27
	ST   -Y,R26
	RET

__CDF2U:
	SET
	RJMP __CDF2U0
__CDF2:
	CLT
__CDF2U0:
	RCALL __SWAPD12
	RCALL __CDF1U0

__SWAPD12:
	MOV  R1,R24
	MOV  R24,R22
	MOV  R22,R1
	MOV  R1,R25
	MOV  R25,R23
	MOV  R23,R1

__SWAPW12:
	MOV  R1,R27
	MOV  R27,R31
	MOV  R31,R1

__SWAPB12:
	MOV  R1,R26
	MOV  R26,R30
	MOV  R30,R1
	RET

__SAVELOCR6:
	ST   -Y,R21
__SAVELOCR5:
	ST   -Y,R20
__SAVELOCR4:
	ST   -Y,R19
__SAVELOCR3:
	ST   -Y,R18
__SAVELOCR2:
	ST   -Y,R17
	ST   -Y,R16
	RET

__LOADLOCR6:
	LDD  R21,Y+5
__LOADLOCR5:
	LDD  R20,Y+4
__LOADLOCR4:
	LDD  R19,Y+3
__LOADLOCR3:
	LDD  R18,Y+2
__LOADLOCR2:
	LDD  R17,Y+1
	LD   R16,Y
	RET

__INITLOCB:
__INITLOCW:
	ADD  R26,R28
	ADC  R27,R29
__INITLOC0:
	LPM  R0,Z+
	ST   X+,R0
	DEC  R24
	BRNE __INITLOC0
	RET

;END OF CODE MARKER
__END_OF_CODE:
